
app:     file format elf32-littlearm


Disassembly of section .text:

00000000 <t_perror>:
       0:	e92d43f0 	push	{r4, r5, r6, r7, r8, r9, lr}
       4:	e59fe084 	ldr	lr, [pc, #132]	; 90 <t_perror+0x90>
       8:	e24dd024 	sub	sp, sp, #36	; 0x24
       c:	e59d4040 	ldr	r4, [sp, #64]	; 0x40
      10:	e59fc07c 	ldr	ip, [pc, #124]	; 94 <t_perror+0x94>
      14:	e08fe00e 	add	lr, pc, lr
      18:	e1a05000 	mov	r5, r0
      1c:	e1a00004 	mov	r0, r4
      20:	e1a06001 	mov	r6, r1
      24:	e1a07002 	mov	r7, r2
      28:	e1a09003 	mov	r9, r3
      2c:	e79e800c 	ldr	r8, [lr, ip]
      30:	eb000018 	bl	98 <itron_strerror>
      34:	e1a04444 	asr	r4, r4, #8
      38:	e3a02000 	mov	r2, #0
      3c:	e3a0c001 	mov	ip, #1
      40:	e58d4010 	str	r4, [sp, #16]
      44:	e58d9014 	str	r9, [sp, #20]
      48:	e58d8008 	str	r8, [sp, #8]
      4c:	e58d7018 	str	r7, [sp, #24]
      50:	e58d601c 	str	r6, [sp, #28]
      54:	e58dc000 	str	ip, [sp]
      58:	e1a03002 	mov	r3, r2
      5c:	e1a04002 	mov	r4, r2
      60:	e1a0100d 	mov	r1, sp
      64:	e58d000c 	str	r0, [sp, #12]
      68:	e1a00005 	mov	r0, r5
      6c:	e1a0700c 	mov	r7, ip
      70:	ef000001 	svc	0x00000001
      74:	e1500002 	cmp	r0, r2
      78:	aa000002 	bge	88 <t_perror+0x88>
      7c:	e3a0c002 	mov	ip, #2
      80:	e1a0700c 	mov	r7, ip
      84:	ef000001 	svc	0x00000001
      88:	e28dd024 	add	sp, sp, #36	; 0x24
      8c:	e8bd83f0 	pop	{r4, r5, r6, r7, r8, r9, pc}
      90:	00015ff0 	strdeq	r5, [r1], -r0
      94:	00000000 	andeq	r0, r0, r0

00000098 <itron_strerror>:
      98:	e1a00c00 	lsl	r0, r0, #24
      9c:	e59f3220 	ldr	r3, [pc, #544]	; 2c4 <itron_strerror+0x22c>
      a0:	e1a00c40 	asr	r0, r0, #24
      a4:	e280003a 	add	r0, r0, #58	; 0x3a
      a8:	e08f3003 	add	r3, pc, r3
      ac:	e350003a 	cmp	r0, #58	; 0x3a
      b0:	908ff100 	addls	pc, pc, r0, lsl #2
      b4:	ea00007f 	b	2b8 <itron_strerror+0x220>
      b8:	ea00007b 	b	2ac <itron_strerror+0x214>
      bc:	ea000077 	b	2a0 <itron_strerror+0x208>
      c0:	ea00007c 	b	2b8 <itron_strerror+0x220>
      c4:	ea00007b 	b	2b8 <itron_strerror+0x220>
      c8:	ea00007a 	b	2b8 <itron_strerror+0x220>
      cc:	ea000079 	b	2b8 <itron_strerror+0x220>
      d0:	ea00006f 	b	294 <itron_strerror+0x1fc>
      d4:	ea00006b 	b	288 <itron_strerror+0x1f0>
      d8:	ea000067 	b	27c <itron_strerror+0x1e4>
      dc:	ea000063 	b	270 <itron_strerror+0x1d8>
      e0:	ea000074 	b	2b8 <itron_strerror+0x220>
      e4:	ea000073 	b	2b8 <itron_strerror+0x220>
      e8:	ea000072 	b	2b8 <itron_strerror+0x220>
      ec:	ea000071 	b	2b8 <itron_strerror+0x220>
      f0:	ea000070 	b	2b8 <itron_strerror+0x220>
      f4:	ea00005a 	b	264 <itron_strerror+0x1cc>
      f8:	ea000056 	b	258 <itron_strerror+0x1c0>
      fc:	ea000052 	b	24c <itron_strerror+0x1b4>
     100:	ea00006c 	b	2b8 <itron_strerror+0x220>
     104:	ea00006b 	b	2b8 <itron_strerror+0x220>
     108:	ea00006a 	b	2b8 <itron_strerror+0x220>
     10c:	ea000069 	b	2b8 <itron_strerror+0x220>
     110:	ea000068 	b	2b8 <itron_strerror+0x220>
     114:	ea000049 	b	240 <itron_strerror+0x1a8>
     118:	ea000045 	b	234 <itron_strerror+0x19c>
     11c:	ea000041 	b	228 <itron_strerror+0x190>
     120:	ea000064 	b	2b8 <itron_strerror+0x220>
     124:	ea000063 	b	2b8 <itron_strerror+0x220>
     128:	ea000062 	b	2b8 <itron_strerror+0x220>
     12c:	ea000061 	b	2b8 <itron_strerror+0x220>
     130:	ea000039 	b	21c <itron_strerror+0x184>
     134:	ea000035 	b	210 <itron_strerror+0x178>
     138:	ea000031 	b	204 <itron_strerror+0x16c>
     13c:	ea00002d 	b	1f8 <itron_strerror+0x160>
     140:	ea00005c 	b	2b8 <itron_strerror+0x220>
     144:	ea00005b 	b	2b8 <itron_strerror+0x220>
     148:	ea00005a 	b	2b8 <itron_strerror+0x220>
     14c:	ea000059 	b	2b8 <itron_strerror+0x220>
     150:	ea000058 	b	2b8 <itron_strerror+0x220>
     154:	ea000057 	b	2b8 <itron_strerror+0x220>
     158:	ea000023 	b	1ec <itron_strerror+0x154>
     15c:	ea00001f 	b	1e0 <itron_strerror+0x148>
     160:	ea000054 	b	2b8 <itron_strerror+0x220>
     164:	ea000053 	b	2b8 <itron_strerror+0x220>
     168:	ea000052 	b	2b8 <itron_strerror+0x220>
     16c:	ea000051 	b	2b8 <itron_strerror+0x220>
     170:	ea000050 	b	2b8 <itron_strerror+0x220>
     174:	ea000016 	b	1d4 <itron_strerror+0x13c>
     178:	ea000012 	b	1c8 <itron_strerror+0x130>
     17c:	ea00000e 	b	1bc <itron_strerror+0x124>
     180:	ea00004c 	b	2b8 <itron_strerror+0x220>
     184:	ea00004b 	b	2b8 <itron_strerror+0x220>
     188:	ea00004a 	b	2b8 <itron_strerror+0x220>
     18c:	ea000007 	b	1b0 <itron_strerror+0x118>
     190:	ea000048 	b	2b8 <itron_strerror+0x220>
     194:	ea000047 	b	2b8 <itron_strerror+0x220>
     198:	ea000046 	b	2b8 <itron_strerror+0x220>
     19c:	ea000045 	b	2b8 <itron_strerror+0x220>
     1a0:	eaffffff 	b	1a4 <itron_strerror+0x10c>
     1a4:	e59f211c 	ldr	r2, [pc, #284]	; 2c8 <itron_strerror+0x230>
     1a8:	e7930002 	ldr	r0, [r3, r2]
     1ac:	e12fff1e 	bx	lr
     1b0:	e59f2114 	ldr	r2, [pc, #276]	; 2cc <itron_strerror+0x234>
     1b4:	e7930002 	ldr	r0, [r3, r2]
     1b8:	e12fff1e 	bx	lr
     1bc:	e59f210c 	ldr	r2, [pc, #268]	; 2d0 <itron_strerror+0x238>
     1c0:	e7930002 	ldr	r0, [r3, r2]
     1c4:	e12fff1e 	bx	lr
     1c8:	e59f2104 	ldr	r2, [pc, #260]	; 2d4 <itron_strerror+0x23c>
     1cc:	e7930002 	ldr	r0, [r3, r2]
     1d0:	e12fff1e 	bx	lr
     1d4:	e59f20fc 	ldr	r2, [pc, #252]	; 2d8 <itron_strerror+0x240>
     1d8:	e7930002 	ldr	r0, [r3, r2]
     1dc:	e12fff1e 	bx	lr
     1e0:	e59f20f4 	ldr	r2, [pc, #244]	; 2dc <itron_strerror+0x244>
     1e4:	e7930002 	ldr	r0, [r3, r2]
     1e8:	e12fff1e 	bx	lr
     1ec:	e59f20ec 	ldr	r2, [pc, #236]	; 2e0 <itron_strerror+0x248>
     1f0:	e7930002 	ldr	r0, [r3, r2]
     1f4:	e12fff1e 	bx	lr
     1f8:	e59f20e4 	ldr	r2, [pc, #228]	; 2e4 <itron_strerror+0x24c>
     1fc:	e7930002 	ldr	r0, [r3, r2]
     200:	e12fff1e 	bx	lr
     204:	e59f20dc 	ldr	r2, [pc, #220]	; 2e8 <itron_strerror+0x250>
     208:	e7930002 	ldr	r0, [r3, r2]
     20c:	e12fff1e 	bx	lr
     210:	e59f20d4 	ldr	r2, [pc, #212]	; 2ec <itron_strerror+0x254>
     214:	e7930002 	ldr	r0, [r3, r2]
     218:	e12fff1e 	bx	lr
     21c:	e59f20cc 	ldr	r2, [pc, #204]	; 2f0 <itron_strerror+0x258>
     220:	e7930002 	ldr	r0, [r3, r2]
     224:	e12fff1e 	bx	lr
     228:	e59f20c4 	ldr	r2, [pc, #196]	; 2f4 <itron_strerror+0x25c>
     22c:	e7930002 	ldr	r0, [r3, r2]
     230:	e12fff1e 	bx	lr
     234:	e59f20bc 	ldr	r2, [pc, #188]	; 2f8 <itron_strerror+0x260>
     238:	e7930002 	ldr	r0, [r3, r2]
     23c:	e12fff1e 	bx	lr
     240:	e59f20b4 	ldr	r2, [pc, #180]	; 2fc <itron_strerror+0x264>
     244:	e7930002 	ldr	r0, [r3, r2]
     248:	e12fff1e 	bx	lr
     24c:	e59f20ac 	ldr	r2, [pc, #172]	; 300 <itron_strerror+0x268>
     250:	e7930002 	ldr	r0, [r3, r2]
     254:	e12fff1e 	bx	lr
     258:	e59f20a4 	ldr	r2, [pc, #164]	; 304 <itron_strerror+0x26c>
     25c:	e7930002 	ldr	r0, [r3, r2]
     260:	e12fff1e 	bx	lr
     264:	e59f209c 	ldr	r2, [pc, #156]	; 308 <itron_strerror+0x270>
     268:	e7930002 	ldr	r0, [r3, r2]
     26c:	e12fff1e 	bx	lr
     270:	e59f2094 	ldr	r2, [pc, #148]	; 30c <itron_strerror+0x274>
     274:	e7930002 	ldr	r0, [r3, r2]
     278:	e12fff1e 	bx	lr
     27c:	e59f208c 	ldr	r2, [pc, #140]	; 310 <itron_strerror+0x278>
     280:	e7930002 	ldr	r0, [r3, r2]
     284:	e12fff1e 	bx	lr
     288:	e59f2084 	ldr	r2, [pc, #132]	; 314 <itron_strerror+0x27c>
     28c:	e7930002 	ldr	r0, [r3, r2]
     290:	e12fff1e 	bx	lr
     294:	e59f207c 	ldr	r2, [pc, #124]	; 318 <itron_strerror+0x280>
     298:	e7930002 	ldr	r0, [r3, r2]
     29c:	e12fff1e 	bx	lr
     2a0:	e59f2074 	ldr	r2, [pc, #116]	; 31c <itron_strerror+0x284>
     2a4:	e7930002 	ldr	r0, [r3, r2]
     2a8:	e12fff1e 	bx	lr
     2ac:	e59f206c 	ldr	r2, [pc, #108]	; 320 <itron_strerror+0x288>
     2b0:	e7930002 	ldr	r0, [r3, r2]
     2b4:	e12fff1e 	bx	lr
     2b8:	e59f2064 	ldr	r2, [pc, #100]	; 324 <itron_strerror+0x28c>
     2bc:	e7930002 	ldr	r0, [r3, r2]
     2c0:	e12fff1e 	bx	lr
     2c4:	00015f5c 	andeq	r5, r1, ip, asr pc
     2c8:	00000004 	andeq	r0, r0, r4
     2cc:	00000008 	andeq	r0, r0, r8
     2d0:	0000000c 	andeq	r0, r0, ip
     2d4:	00000010 	andeq	r0, r0, r0, lsl r0
     2d8:	00000014 	andeq	r0, r0, r4, lsl r0
     2dc:	00000018 	andeq	r0, r0, r8, lsl r0
     2e0:	0000001c 	andeq	r0, r0, ip, lsl r0
     2e4:	00000020 	andeq	r0, r0, r0, lsr #32
     2e8:	00000024 	andeq	r0, r0, r4, lsr #32
     2ec:	00000028 	andeq	r0, r0, r8, lsr #32
     2f0:	0000002c 	andeq	r0, r0, ip, lsr #32
     2f4:	00000030 	andeq	r0, r0, r0, lsr r0
     2f8:	00000034 	andeq	r0, r0, r4, lsr r0
     2fc:	00000038 	andeq	r0, r0, r8, lsr r0
     300:	0000003c 	andeq	r0, r0, ip, lsr r0
     304:	00000040 	andeq	r0, r0, r0, asr #32
     308:	00000044 	andeq	r0, r0, r4, asr #32
     30c:	00000048 	andeq	r0, r0, r8, asr #32
     310:	0000004c 	andeq	r0, r0, ip, asr #32
     314:	00000050 	andeq	r0, r0, r0, asr r0
     318:	00000054 	andeq	r0, r0, r4, asr r0
     31c:	00000058 	andeq	r0, r0, r8, asr r0
     320:	0000005c 	andeq	r0, r0, ip, asr r0
     324:	00000060 	andeq	r0, r0, r0, rrx

00000328 <syslog>:
     328:	e92d000e 	push	{r1, r2, r3}
     32c:	e92d4090 	push	{r4, r7, lr}
     330:	e24dd028 	sub	sp, sp, #40	; 0x28
     334:	e59d1034 	ldr	r1, [sp, #52]	; 0x34
     338:	e3a0e001 	mov	lr, #1
     33c:	e5d13000 	ldrb	r3, [r1]
     340:	e28d4038 	add	r4, sp, #56	; 0x38
     344:	e58d1010 	str	r1, [sp, #16]
     348:	e98d4010 	stmib	sp, {r4, lr}
     34c:	e35e0005 	cmp	lr, #5
     350:	83a0c000 	movhi	ip, #0
     354:	93a0c001 	movls	ip, #1
     358:	e3530000 	cmp	r3, #0
     35c:	03a02000 	moveq	r2, #0
     360:	120c2001 	andne	r2, ip, #1
     364:	e3520000 	cmp	r2, #0
     368:	0a00001e 	beq	3e8 <syslog+0xc0>
     36c:	e3530025 	cmp	r3, #37	; 0x25
     370:	15f13001 	ldrbne	r3, [r1, #1]!
     374:	1afffff7 	bne	358 <syslog+0x30>
     378:	e5d13001 	ldrb	r3, [r1, #1]
     37c:	e2812002 	add	r2, r1, #2
     380:	e2431030 	sub	r1, r3, #48	; 0x30
     384:	e3510009 	cmp	r1, #9
     388:	8a000003 	bhi	39c <syslog+0x74>
     38c:	e4d23001 	ldrb	r3, [r2], #1
     390:	e2431030 	sub	r1, r3, #48	; 0x30
     394:	e3510009 	cmp	r1, #9
     398:	9afffffb 	bls	38c <syslog+0x64>
     39c:	e353006c 	cmp	r3, #108	; 0x6c
     3a0:	0a000028 	beq	448 <syslog+0x120>
     3a4:	e3530064 	cmp	r3, #100	; 0x64
     3a8:	0a00003e 	beq	4a8 <syslog+0x180>
     3ac:	9a00001c 	bls	424 <syslog+0xfc>
     3b0:	e3530073 	cmp	r3, #115	; 0x73
     3b4:	0a000002 	beq	3c4 <syslog+0x9c>
     3b8:	8a000036 	bhi	498 <syslog+0x170>
     3bc:	e3530070 	cmp	r3, #112	; 0x70
     3c0:	1a00001d 	bne	43c <syslog+0x114>
     3c4:	e5941000 	ldr	r1, [r4]
     3c8:	e28d3028 	add	r3, sp, #40	; 0x28
     3cc:	e083310e 	add	r3, r3, lr, lsl #2
     3d0:	e5031018 	str	r1, [r3, #-24]	; 0xffffffe8
     3d4:	e2844004 	add	r4, r4, #4
     3d8:	e28ee001 	add	lr, lr, #1
     3dc:	e5d23000 	ldrb	r3, [r2]
     3e0:	e1a01002 	mov	r1, r2
     3e4:	eaffffd8 	b	34c <syslog+0x24>
     3e8:	e28d1008 	add	r1, sp, #8
     3ec:	e1a03002 	mov	r3, r2
     3f0:	e1a04002 	mov	r4, r2
     3f4:	e3a0c001 	mov	ip, #1
     3f8:	e1a0700c 	mov	r7, ip
     3fc:	ef000001 	svc	0x00000001
     400:	e3500000 	cmp	r0, #0
     404:	aa000002 	bge	414 <syslog+0xec>
     408:	e3a0c002 	mov	ip, #2
     40c:	e1a0700c 	mov	r7, ip
     410:	ef000001 	svc	0x00000001
     414:	e28dd028 	add	sp, sp, #40	; 0x28
     418:	e8bd4090 	pop	{r4, r7, lr}
     41c:	e28dd00c 	add	sp, sp, #12
     420:	e12fff1e 	bx	lr
     424:	e3530058 	cmp	r3, #88	; 0x58
     428:	0a00001e 	beq	4a8 <syslog+0x180>
     42c:	e3530063 	cmp	r3, #99	; 0x63
     430:	0affffe3 	beq	3c4 <syslog+0x9c>
     434:	e3530000 	cmp	r3, #0
     438:	0a000024 	beq	4d0 <syslog+0x1a8>
     43c:	e5d23000 	ldrb	r3, [r2]
     440:	e1a01002 	mov	r1, r2
     444:	eaffffc0 	b	34c <syslog+0x24>
     448:	e5d23000 	ldrb	r3, [r2]
     44c:	e2821001 	add	r1, r2, #1
     450:	e3530064 	cmp	r3, #100	; 0x64
     454:	0a000014 	beq	4ac <syslog+0x184>
     458:	9a000006 	bls	478 <syslog+0x150>
     45c:	e3530073 	cmp	r3, #115	; 0x73
     460:	0a000002 	beq	470 <syslog+0x148>
     464:	8a00001c 	bhi	4dc <syslog+0x1b4>
     468:	e3530070 	cmp	r3, #112	; 0x70
     46c:	1a000007 	bne	490 <syslog+0x168>
     470:	e1a02001 	mov	r2, r1
     474:	eaffffd2 	b	3c4 <syslog+0x9c>
     478:	e3530058 	cmp	r3, #88	; 0x58
     47c:	0a00000a 	beq	4ac <syslog+0x184>
     480:	e3530063 	cmp	r3, #99	; 0x63
     484:	0afffff9 	beq	470 <syslog+0x148>
     488:	e3530000 	cmp	r3, #0
     48c:	0a000017 	beq	4f0 <syslog+0x1c8>
     490:	e5d23001 	ldrb	r3, [r2, #1]
     494:	eaffffac 	b	34c <syslog+0x24>
     498:	e3530075 	cmp	r3, #117	; 0x75
     49c:	0a000001 	beq	4a8 <syslog+0x180>
     4a0:	e3530078 	cmp	r3, #120	; 0x78
     4a4:	1affffe4 	bne	43c <syslog+0x114>
     4a8:	e1a01002 	mov	r1, r2
     4ac:	e5942000 	ldr	r2, [r4]
     4b0:	e28dc028 	add	ip, sp, #40	; 0x28
     4b4:	e28e3001 	add	r3, lr, #1
     4b8:	e08ce10e 	add	lr, ip, lr, lsl #2
     4bc:	e50e2018 	str	r2, [lr, #-24]	; 0xffffffe8
     4c0:	e2844004 	add	r4, r4, #4
     4c4:	e1a0e003 	mov	lr, r3
     4c8:	e5d13000 	ldrb	r3, [r1]
     4cc:	eaffff9e 	b	34c <syslog+0x24>
     4d0:	e5523001 	ldrb	r3, [r2, #-1]
     4d4:	e2421001 	sub	r1, r2, #1
     4d8:	eaffff9b 	b	34c <syslog+0x24>
     4dc:	e3530075 	cmp	r3, #117	; 0x75
     4e0:	0afffff1 	beq	4ac <syslog+0x184>
     4e4:	e3530078 	cmp	r3, #120	; 0x78
     4e8:	0affffef 	beq	4ac <syslog+0x184>
     4ec:	eaffffe7 	b	490 <syslog+0x168>
     4f0:	e1a02001 	mov	r2, r1
     4f4:	eafffff6 	b	4d4 <syslog+0x1ac>

000004f8 <get_used_size>:
     4f8:	e3a00000 	mov	r0, #0
     4fc:	e12fff1e 	bx	lr

00000500 <get_max_size>:
     500:	e3a00000 	mov	r0, #0
     504:	e12fff1e 	bx	lr

00000508 <destroy_memory_pool>:
     508:	e3a03000 	mov	r3, #0
     50c:	e5803000 	str	r3, [r0]
     510:	e12fff1e 	bx	lr

00000514 <malloc_ex>:
     514:	e92d41f0 	push	{r4, r5, r6, r7, r8, lr}
     518:	e59fe3a8 	ldr	lr, [pc, #936]	; 8c8 <malloc_ex+0x3b4>
     51c:	e3500007 	cmp	r0, #7
     520:	e08fe00e 	add	lr, pc, lr
     524:	9a000087 	bls	748 <malloc_ex+0x234>
     528:	e2800007 	add	r0, r0, #7
     52c:	e3c03007 	bic	r3, r0, #7
     530:	e353007f 	cmp	r3, #127	; 0x7f
     534:	9a0000df 	bls	8b8 <malloc_ex+0x3a4>
     538:	e3530801 	cmp	r3, #65536	; 0x10000
     53c:	2a00008d 	bcs	778 <malloc_ex+0x264>
     540:	e35300ff 	cmp	r3, #255	; 0xff
     544:	83a02008 	movhi	r2, #8
     548:	81a00002 	movhi	r0, r2
     54c:	9a0000a7 	bls	7f0 <malloc_ex+0x2dc>
     550:	e59fc374 	ldr	ip, [pc, #884]	; 8cc <malloc_ex+0x3b8>
     554:	e1a02233 	lsr	r2, r3, r2
     558:	e79ee00c 	ldr	lr, [lr, ip]
     55c:	e3e04000 	mvn	r4, #0
     560:	e79e2102 	ldr	r2, [lr, r2, lsl #2]
     564:	e0802002 	add	r2, r0, r2
     568:	e2422005 	sub	r2, r2, #5
     56c:	e1e04214 	mvn	r4, r4, lsl r2
     570:	e0843003 	add	r3, r4, r3
     574:	e3530801 	cmp	r3, #65536	; 0x10000
     578:	2a000093 	bcs	7cc <malloc_ex+0x2b8>
     57c:	e35300ff 	cmp	r3, #255	; 0xff
     580:	83a0c008 	movhi	ip, #8
     584:	81a0000c 	movhi	r0, ip
     588:	9a000095 	bls	7e4 <malloc_ex+0x2d0>
     58c:	e1a0cc33 	lsr	ip, r3, ip
     590:	e79e210c 	ldr	r2, [lr, ip, lsl #2]
     594:	e3e0c000 	mvn	ip, #0
     598:	e0800002 	add	r0, r0, r2
     59c:	e2402005 	sub	r2, r0, #5
     5a0:	e1a02233 	lsr	r2, r3, r2
     5a4:	e2422020 	sub	r2, r2, #32
     5a8:	e1a0221c 	lsl	r2, ip, r2
     5ac:	e1c33004 	bic	r3, r3, r4
     5b0:	e240c006 	sub	ip, r0, #6
     5b4:	e28c4002 	add	r4, ip, #2
     5b8:	e0810104 	add	r0, r1, r4, lsl #2
     5bc:	e5900004 	ldr	r0, [r0, #4]
     5c0:	e0122000 	ands	r2, r2, r0
     5c4:	1a000013 	bne	618 <malloc_ex+0x104>
     5c8:	e5914008 	ldr	r4, [r1, #8]
     5cc:	e3e00000 	mvn	r0, #0
     5d0:	e28cc001 	add	ip, ip, #1
     5d4:	e004cc10 	and	ip, r4, r0, lsl ip
     5d8:	e26c0000 	rsb	r0, ip, #0
     5dc:	e000000c 	and	r0, r0, ip
     5e0:	e3500801 	cmp	r0, #65536	; 0x10000
     5e4:	2a000069 	bcs	790 <malloc_ex+0x27c>
     5e8:	e35000ff 	cmp	r0, #255	; 0xff
     5ec:	83a02008 	movhi	r2, #8
     5f0:	81a0c002 	movhi	ip, r2
     5f4:	9a00006a 	bls	7a4 <malloc_ex+0x290>
     5f8:	e1a02230 	lsr	r2, r0, r2
     5fc:	e79e2102 	ldr	r2, [lr, r2, lsl #2]
     600:	e08cc002 	add	ip, ip, r2
     604:	e35c0000 	cmp	ip, #0
     608:	da0000a8 	ble	8b0 <malloc_ex+0x39c>
     60c:	e28c4002 	add	r4, ip, #2
     610:	e0812104 	add	r2, r1, r4, lsl #2
     614:	e5922004 	ldr	r2, [r2, #4]
     618:	e2620000 	rsb	r0, r2, #0
     61c:	e0022000 	and	r2, r2, r0
     620:	e3520801 	cmp	r2, #65536	; 0x10000
     624:	3a00004d 	bcc	760 <malloc_ex+0x24c>
     628:	e3520401 	cmp	r2, #16777216	; 0x1000000
     62c:	23a00018 	movcs	r0, #24
     630:	21a06000 	movcs	r6, r0
     634:	33a00010 	movcc	r0, #16
     638:	31a06000 	movcc	r6, r0
     63c:	e1a02032 	lsr	r2, r2, r0
     640:	e79e0102 	ldr	r0, [lr, r2, lsl #2]
     644:	e1a0228c 	lsl	r2, ip, #5
     648:	e0866000 	add	r6, r6, r0
     64c:	e0820006 	add	r0, r2, r6
     650:	e0810100 	add	r0, r1, r0, lsl #2
     654:	e590006c 	ldr	r0, [r0, #108]	; 0x6c
     658:	e3500000 	cmp	r0, #0
     65c:	08bd81f0 	popeq	{r4, r5, r6, r7, r8, pc}
     660:	e590500c 	ldr	r5, [r0, #12]
     664:	e0822006 	add	r2, r2, r6
     668:	e0812102 	add	r2, r1, r2, lsl #2
     66c:	e3550000 	cmp	r5, #0
     670:	e582506c 	str	r5, [r2, #108]	; 0x6c
     674:	0a000060 	beq	7fc <malloc_ex+0x2e8>
     678:	e3a02000 	mov	r2, #0
     67c:	e5852008 	str	r2, [r5, #8]
     680:	e5902004 	ldr	r2, [r0, #4]
     684:	e3a04000 	mov	r4, #0
     688:	e3c22003 	bic	r2, r2, #3
     68c:	e063c002 	rsb	ip, r3, r2
     690:	e35c000f 	cmp	ip, #15
     694:	e2822008 	add	r2, r2, #8
     698:	e0805002 	add	r5, r0, r2
     69c:	e5804008 	str	r4, [r0, #8]
     6a0:	e580400c 	str	r4, [r0, #12]
     6a4:	9a000040 	bls	7ac <malloc_ex+0x298>
     6a8:	e24cc008 	sub	ip, ip, #8
     6ac:	e2835008 	add	r5, r3, #8
     6b0:	e0805005 	add	r5, r0, r5
     6b4:	e38c6001 	orr	r6, ip, #1
     6b8:	e35c007f 	cmp	ip, #127	; 0x7f
     6bc:	e5856004 	str	r6, [r5, #4]
     6c0:	e7805002 	str	r5, [r0, r2]
     6c4:	8a00005e 	bhi	844 <malloc_ex+0x330>
     6c8:	e1a02004 	mov	r2, r4
     6cc:	e1a0c12c 	lsr	ip, ip, #2
     6d0:	e1a0e004 	mov	lr, r4
     6d4:	e3a06001 	mov	r6, #1
     6d8:	e08c428e 	add	r4, ip, lr, lsl #5
     6dc:	e0814104 	add	r4, r1, r4, lsl #2
     6e0:	e3a07000 	mov	r7, #0
     6e4:	e5857008 	str	r7, [r5, #8]
     6e8:	e594706c 	ldr	r7, [r4, #108]	; 0x6c
     6ec:	e081e10e 	add	lr, r1, lr, lsl #2
     6f0:	e585700c 	str	r7, [r5, #12]
     6f4:	e594706c 	ldr	r7, [r4, #108]	; 0x6c
     6f8:	e28ee00c 	add	lr, lr, #12
     6fc:	e3570000 	cmp	r7, #0
     700:	15875008 	strne	r5, [r7, #8]
     704:	e1a072cc 	asr	r7, ip, #5
     708:	e584506c 	str	r5, [r4, #108]	; 0x6c
     70c:	e79e4107 	ldr	r4, [lr, r7, lsl #2]
     710:	e3a05001 	mov	r5, #1
     714:	e20cc01f 	and	ip, ip, #31
     718:	e184cc15 	orr	ip, r4, r5, lsl ip
     71c:	e2811008 	add	r1, r1, #8
     720:	e78ec107 	str	ip, [lr, r7, lsl #2]
     724:	e791c002 	ldr	ip, [r1, r2]
     728:	e2800008 	add	r0, r0, #8
     72c:	e18cc006 	orr	ip, ip, r6
     730:	e781c002 	str	ip, [r1, r2]
     734:	e5102004 	ldr	r2, [r0, #-4]
     738:	e2022002 	and	r2, r2, #2
     73c:	e1833002 	orr	r3, r3, r2
     740:	e5003004 	str	r3, [r0, #-4]
     744:	e8bd81f0 	pop	{r4, r5, r6, r7, r8, pc}
     748:	e3e02003 	mvn	r2, #3
     74c:	e3a03008 	mov	r3, #8
     750:	e59f0174 	ldr	r0, [pc, #372]	; 8cc <malloc_ex+0x3b8>
     754:	e3a0c000 	mov	ip, #0
     758:	e79ee000 	ldr	lr, [lr, r0]
     75c:	eaffff94 	b	5b4 <malloc_ex+0xa0>
     760:	e35200ff 	cmp	r2, #255	; 0xff
     764:	83a00008 	movhi	r0, #8
     768:	81a06000 	movhi	r6, r0
     76c:	93a00000 	movls	r0, #0
     770:	91a06000 	movls	r6, r0
     774:	eaffffb0 	b	63c <malloc_ex+0x128>
     778:	e3530401 	cmp	r3, #16777216	; 0x1000000
     77c:	23a02018 	movcs	r2, #24
     780:	21a00002 	movcs	r0, r2
     784:	33a02010 	movcc	r2, #16
     788:	31a00002 	movcc	r0, r2
     78c:	eaffff6f 	b	550 <malloc_ex+0x3c>
     790:	e3500401 	cmp	r0, #16777216	; 0x1000000
     794:	23a02018 	movcs	r2, #24
     798:	21a0c002 	movcs	ip, r2
     79c:	2affff95 	bcs	5f8 <malloc_ex+0xe4>
     7a0:	e3a02010 	mov	r2, #16
     7a4:	e1a0c002 	mov	ip, r2
     7a8:	eaffff92 	b	5f8 <malloc_ex+0xe4>
     7ac:	e5953004 	ldr	r3, [r5, #4]
     7b0:	e2800008 	add	r0, r0, #8
     7b4:	e3c33002 	bic	r3, r3, #2
     7b8:	e5853004 	str	r3, [r5, #4]
     7bc:	e5103004 	ldr	r3, [r0, #-4]
     7c0:	e3c33001 	bic	r3, r3, #1
     7c4:	e5003004 	str	r3, [r0, #-4]
     7c8:	e8bd81f0 	pop	{r4, r5, r6, r7, r8, pc}
     7cc:	e3530401 	cmp	r3, #16777216	; 0x1000000
     7d0:	23a0c018 	movcs	ip, #24
     7d4:	21a0000c 	movcs	r0, ip
     7d8:	33a0c010 	movcc	ip, #16
     7dc:	31a0000c 	movcc	r0, ip
     7e0:	eaffff69 	b	58c <malloc_ex+0x78>
     7e4:	e3a0c000 	mov	ip, #0
     7e8:	e1a0000c 	mov	r0, ip
     7ec:	eaffff66 	b	58c <malloc_ex+0x78>
     7f0:	e3a02000 	mov	r2, #0
     7f4:	e1a00002 	mov	r0, r2
     7f8:	eaffff54 	b	550 <malloc_ex+0x3c>
     7fc:	e0814104 	add	r4, r1, r4, lsl #2
     800:	e1a082c6 	asr	r8, r6, #5
     804:	e2847004 	add	r7, r4, #4
     808:	e7975108 	ldr	r5, [r7, r8, lsl #2]
     80c:	e206201f 	and	r2, r6, #31
     810:	e3a06001 	mov	r6, #1
     814:	e1c52216 	bic	r2, r5, r6, lsl r2
     818:	e7872108 	str	r2, [r7, r8, lsl #2]
     81c:	e5942004 	ldr	r2, [r4, #4]
     820:	e3520000 	cmp	r2, #0
     824:	1affff95 	bne	680 <malloc_ex+0x16c>
     828:	e1a052cc 	asr	r5, ip, #5
     82c:	e2814008 	add	r4, r1, #8
     830:	e7942105 	ldr	r2, [r4, r5, lsl #2]
     834:	e20cc01f 	and	ip, ip, #31
     838:	e1c2cc16 	bic	ip, r2, r6, lsl ip
     83c:	e784c105 	str	ip, [r4, r5, lsl #2]
     840:	eaffff8e 	b	680 <malloc_ex+0x16c>
     844:	e35c0801 	cmp	ip, #65536	; 0x10000
     848:	2a000010 	bcs	890 <malloc_ex+0x37c>
     84c:	e35c00ff 	cmp	ip, #255	; 0xff
     850:	83a02008 	movhi	r2, #8
     854:	81a04002 	movhi	r4, r2
     858:	9a000012 	bls	8a8 <malloc_ex+0x394>
     85c:	e1a0223c 	lsr	r2, ip, r2
     860:	e79ee102 	ldr	lr, [lr, r2, lsl #2]
     864:	e3a06001 	mov	r6, #1
     868:	e084e00e 	add	lr, r4, lr
     86c:	e24e2005 	sub	r2, lr, #5
     870:	e24ee006 	sub	lr, lr, #6
     874:	e1a0c23c 	lsr	ip, ip, r2
     878:	e20e201f 	and	r2, lr, #31
     87c:	e1a06216 	lsl	r6, r6, r2
     880:	e1a022ce 	asr	r2, lr, #5
     884:	e24cc020 	sub	ip, ip, #32
     888:	e1a02102 	lsl	r2, r2, #2
     88c:	eaffff91 	b	6d8 <malloc_ex+0x1c4>
     890:	e35c0401 	cmp	ip, #16777216	; 0x1000000
     894:	23a02018 	movcs	r2, #24
     898:	21a04002 	movcs	r4, r2
     89c:	33a02010 	movcc	r2, #16
     8a0:	31a04002 	movcc	r4, r2
     8a4:	eaffffec 	b	85c <malloc_ex+0x348>
     8a8:	e1a02004 	mov	r2, r4
     8ac:	eaffffea 	b	85c <malloc_ex+0x348>
     8b0:	e3a00000 	mov	r0, #0
     8b4:	e8bd81f0 	pop	{r4, r5, r6, r7, r8, pc}
     8b8:	e1a00123 	lsr	r0, r3, #2
     8bc:	e3e02000 	mvn	r2, #0
     8c0:	e1a02012 	lsl	r2, r2, r0
     8c4:	eaffffa1 	b	750 <malloc_ex+0x23c>
     8c8:	00015ae4 	andeq	r5, r1, r4, ror #21
     8cc:	00000064 	andeq	r0, r0, r4, rrx

000008d0 <tlsf_malloc>:
     8d0:	e59f3010 	ldr	r3, [pc, #16]	; 8e8 <tlsf_malloc+0x18>
     8d4:	e59f2010 	ldr	r2, [pc, #16]	; 8ec <tlsf_malloc+0x1c>
     8d8:	e08f3003 	add	r3, pc, r3
     8dc:	e7933002 	ldr	r3, [r3, r2]
     8e0:	e5931000 	ldr	r1, [r3]
     8e4:	eaffff0a 	b	514 <malloc_ex>
     8e8:	0001572c 	andeq	r5, r1, ip, lsr #14
     8ec:	00000070 	andeq	r0, r0, r0, ror r0

000008f0 <free_ex>:
     8f0:	e92d43f0 	push	{r4, r5, r6, r7, r8, r9, lr}
     8f4:	e59f4398 	ldr	r4, [pc, #920]	; c94 <free_ex+0x3a4>
     8f8:	e3500000 	cmp	r0, #0
     8fc:	e08f4004 	add	r4, pc, r4
     900:	08bd83f0 	popeq	{r4, r5, r6, r7, r8, r9, pc}
     904:	e5103004 	ldr	r3, [r0, #-4]
     908:	e3a0e000 	mov	lr, #0
     90c:	e3c32003 	bic	r2, r3, #3
     910:	e0802002 	add	r2, r0, r2
     914:	e3833001 	orr	r3, r3, #1
     918:	e8004008 	stmda	r0, {r3, lr}
     91c:	e580e004 	str	lr, [r0, #4]
     920:	e5925004 	ldr	r5, [r2, #4]
     924:	e240c008 	sub	ip, r0, #8
     928:	e3150001 	tst	r5, #1
     92c:	0281e008 	addeq	lr, r1, #8
     930:	0a00001b 	beq	9a4 <free_ex+0xb4>
     934:	e3c55003 	bic	r5, r5, #3
     938:	e355007f 	cmp	r5, #127	; 0x7f
     93c:	8a000078 	bhi	b24 <free_ex+0x234>
     940:	e1a05125 	lsr	r5, r5, #2
     944:	e1a0600e 	mov	r6, lr
     948:	e592300c 	ldr	r3, [r2, #12]
     94c:	e3530000 	cmp	r3, #0
     950:	1592e008 	ldrne	lr, [r2, #8]
     954:	1583e008 	strne	lr, [r3, #8]
     958:	e5923008 	ldr	r3, [r2, #8]
     95c:	e3530000 	cmp	r3, #0
     960:	1592e00c 	ldrne	lr, [r2, #12]
     964:	1583e00c 	strne	lr, [r3, #12]
     968:	e0853286 	add	r3, r5, r6, lsl #5
     96c:	e0813103 	add	r3, r1, r3, lsl #2
     970:	e593e06c 	ldr	lr, [r3, #108]	; 0x6c
     974:	e15e0002 	cmp	lr, r2
     978:	0a0000a5 	beq	c14 <free_ex+0x324>
     97c:	e281e008 	add	lr, r1, #8
     980:	e3a03000 	mov	r3, #0
     984:	e5823008 	str	r3, [r2, #8]
     988:	e582300c 	str	r3, [r2, #12]
     98c:	e5922004 	ldr	r2, [r2, #4]
     990:	e5103004 	ldr	r3, [r0, #-4]
     994:	e3c22003 	bic	r2, r2, #3
     998:	e2833008 	add	r3, r3, #8
     99c:	e0833002 	add	r3, r3, r2
     9a0:	e5003004 	str	r3, [r0, #-4]
     9a4:	e3130002 	tst	r3, #2
     9a8:	0a00001c 	beq	a20 <free_ex+0x130>
     9ac:	e510c008 	ldr	ip, [r0, #-8]
     9b0:	e59c3004 	ldr	r3, [ip, #4]
     9b4:	e3c33003 	bic	r3, r3, #3
     9b8:	e353007f 	cmp	r3, #127	; 0x7f
     9bc:	8a00006f 	bhi	b80 <free_ex+0x290>
     9c0:	e1a03123 	lsr	r3, r3, #2
     9c4:	e3a06000 	mov	r6, #0
     9c8:	e59c200c 	ldr	r2, [ip, #12]
     9cc:	e3520000 	cmp	r2, #0
     9d0:	159c5008 	ldrne	r5, [ip, #8]
     9d4:	15825008 	strne	r5, [r2, #8]
     9d8:	e59c2008 	ldr	r2, [ip, #8]
     9dc:	e3520000 	cmp	r2, #0
     9e0:	159c500c 	ldrne	r5, [ip, #12]
     9e4:	1582500c 	strne	r5, [r2, #12]
     9e8:	e0832286 	add	r2, r3, r6, lsl #5
     9ec:	e0812102 	add	r2, r1, r2, lsl #2
     9f0:	e592506c 	ldr	r5, [r2, #108]	; 0x6c
     9f4:	e155000c 	cmp	r5, ip
     9f8:	0a000070 	beq	bc0 <free_ex+0x2d0>
     9fc:	e3a03000 	mov	r3, #0
     a00:	e59c2004 	ldr	r2, [ip, #4]
     a04:	e58c3008 	str	r3, [ip, #8]
     a08:	e58c300c 	str	r3, [ip, #12]
     a0c:	e5103004 	ldr	r3, [r0, #-4]
     a10:	e2822008 	add	r2, r2, #8
     a14:	e3c33003 	bic	r3, r3, #3
     a18:	e0823003 	add	r3, r2, r3
     a1c:	e58c3004 	str	r3, [ip, #4]
     a20:	e3c33003 	bic	r3, r3, #3
     a24:	e353007f 	cmp	r3, #127	; 0x7f
     a28:	8a000021 	bhi	ab4 <free_ex+0x1c4>
     a2c:	e3a05000 	mov	r5, #0
     a30:	e1a03123 	lsr	r3, r3, #2
     a34:	e1a00005 	mov	r0, r5
     a38:	e3a04001 	mov	r4, #1
     a3c:	e0832280 	add	r2, r3, r0, lsl #5
     a40:	e0812102 	add	r2, r1, r2, lsl #2
     a44:	e3a06000 	mov	r6, #0
     a48:	e58c6008 	str	r6, [ip, #8]
     a4c:	e592606c 	ldr	r6, [r2, #108]	; 0x6c
     a50:	e0811100 	add	r1, r1, r0, lsl #2
     a54:	e58c600c 	str	r6, [ip, #12]
     a58:	e592606c 	ldr	r6, [r2, #108]	; 0x6c
     a5c:	e281100c 	add	r1, r1, #12
     a60:	e1a002c3 	asr	r0, r3, #5
     a64:	e3560000 	cmp	r6, #0
     a68:	1586c008 	strne	ip, [r6, #8]
     a6c:	e582c06c 	str	ip, [r2, #108]	; 0x6c
     a70:	e7912100 	ldr	r2, [r1, r0, lsl #2]
     a74:	e203301f 	and	r3, r3, #31
     a78:	e3a06001 	mov	r6, #1
     a7c:	e1823316 	orr	r3, r2, r6, lsl r3
     a80:	e7813100 	str	r3, [r1, r0, lsl #2]
     a84:	e79e3005 	ldr	r3, [lr, r5]
     a88:	e1834004 	orr	r4, r3, r4
     a8c:	e78e4005 	str	r4, [lr, r5]
     a90:	e59c3004 	ldr	r3, [ip, #4]
     a94:	e3c33003 	bic	r3, r3, #3
     a98:	e2833008 	add	r3, r3, #8
     a9c:	e08c1003 	add	r1, ip, r3
     aa0:	e5912004 	ldr	r2, [r1, #4]
     aa4:	e3822002 	orr	r2, r2, #2
     aa8:	e5812004 	str	r2, [r1, #4]
     aac:	e78cc003 	str	ip, [ip, r3]
     ab0:	e8bd83f0 	pop	{r4, r5, r6, r7, r8, r9, pc}
     ab4:	e3530801 	cmp	r3, #65536	; 0x10000
     ab8:	3a000013 	bcc	b0c <free_ex+0x21c>
     abc:	e3530401 	cmp	r3, #16777216	; 0x1000000
     ac0:	23a00018 	movcs	r0, #24
     ac4:	21a02000 	movcs	r2, r0
     ac8:	33a00010 	movcc	r0, #16
     acc:	31a02000 	movcc	r2, r0
     ad0:	e59f51c0 	ldr	r5, [pc, #448]	; c98 <free_ex+0x3a8>
     ad4:	e1a00033 	lsr	r0, r3, r0
     ad8:	e7945005 	ldr	r5, [r4, r5]
     adc:	e3a04001 	mov	r4, #1
     ae0:	e7950100 	ldr	r0, [r5, r0, lsl #2]
     ae4:	e0820000 	add	r0, r2, r0
     ae8:	e2402005 	sub	r2, r0, #5
     aec:	e1a03233 	lsr	r3, r3, r2
     af0:	e2400006 	sub	r0, r0, #6
     af4:	e200201f 	and	r2, r0, #31
     af8:	e1a052c0 	asr	r5, r0, #5
     afc:	e1a04214 	lsl	r4, r4, r2
     b00:	e2433020 	sub	r3, r3, #32
     b04:	e1a05105 	lsl	r5, r5, #2
     b08:	eaffffcb 	b	a3c <free_ex+0x14c>
     b0c:	e35300ff 	cmp	r3, #255	; 0xff
     b10:	83a00008 	movhi	r0, #8
     b14:	81a02000 	movhi	r2, r0
     b18:	93a00000 	movls	r0, #0
     b1c:	91a02000 	movls	r2, r0
     b20:	eaffffea 	b	ad0 <free_ex+0x1e0>
     b24:	e3550801 	cmp	r5, #65536	; 0x10000
     b28:	2a00000d 	bcs	b64 <free_ex+0x274>
     b2c:	e35500ff 	cmp	r5, #255	; 0xff
     b30:	83a0e008 	movhi	lr, #8
     b34:	81a0300e 	movhi	r3, lr
     b38:	9a00000e 	bls	b78 <free_ex+0x288>
     b3c:	e59f6154 	ldr	r6, [pc, #340]	; c98 <free_ex+0x3a8>
     b40:	e1a0ee35 	lsr	lr, r5, lr
     b44:	e7946006 	ldr	r6, [r4, r6]
     b48:	e796e10e 	ldr	lr, [r6, lr, lsl #2]
     b4c:	e083e00e 	add	lr, r3, lr
     b50:	e24e3005 	sub	r3, lr, #5
     b54:	e1a05335 	lsr	r5, r5, r3
     b58:	e24e6006 	sub	r6, lr, #6
     b5c:	e2455020 	sub	r5, r5, #32
     b60:	eaffff78 	b	948 <free_ex+0x58>
     b64:	e3550401 	cmp	r5, #16777216	; 0x1000000
     b68:	23a0e018 	movcs	lr, #24
     b6c:	21a0300e 	movcs	r3, lr
     b70:	2afffff1 	bcs	b3c <free_ex+0x24c>
     b74:	e3a0e010 	mov	lr, #16
     b78:	e1a0300e 	mov	r3, lr
     b7c:	eaffffee 	b	b3c <free_ex+0x24c>
     b80:	e3530801 	cmp	r3, #65536	; 0x10000
     b84:	2a000039 	bcs	c70 <free_ex+0x380>
     b88:	e35300ff 	cmp	r3, #255	; 0xff
     b8c:	83a05008 	movhi	r5, #8
     b90:	81a02005 	movhi	r2, r5
     b94:	9a00003b 	bls	c88 <free_ex+0x398>
     b98:	e59f60f8 	ldr	r6, [pc, #248]	; c98 <free_ex+0x3a8>
     b9c:	e1a05533 	lsr	r5, r3, r5
     ba0:	e7946006 	ldr	r6, [r4, r6]
     ba4:	e7966105 	ldr	r6, [r6, r5, lsl #2]
     ba8:	e0826006 	add	r6, r2, r6
     bac:	e2462005 	sub	r2, r6, #5
     bb0:	e1a03233 	lsr	r3, r3, r2
     bb4:	e2466006 	sub	r6, r6, #6
     bb8:	e2433020 	sub	r3, r3, #32
     bbc:	eaffff81 	b	9c8 <free_ex+0xd8>
     bc0:	e59c500c 	ldr	r5, [ip, #12]
     bc4:	e3550000 	cmp	r5, #0
     bc8:	e582506c 	str	r5, [r2, #108]	; 0x6c
     bcc:	1affff8a 	bne	9fc <free_ex+0x10c>
     bd0:	e2862002 	add	r2, r6, #2
     bd4:	e0812102 	add	r2, r1, r2, lsl #2
     bd8:	e2827004 	add	r7, r2, #4
     bdc:	e1a082c3 	asr	r8, r3, #5
     be0:	e7975108 	ldr	r5, [r7, r8, lsl #2]
     be4:	e3a09001 	mov	r9, #1
     be8:	e203301f 	and	r3, r3, #31
     bec:	e1c53319 	bic	r3, r5, r9, lsl r3
     bf0:	e7873108 	str	r3, [r7, r8, lsl #2]
     bf4:	e5923004 	ldr	r3, [r2, #4]
     bf8:	e3530000 	cmp	r3, #0
     bfc:	01a052c6 	asreq	r5, r6, #5
     c00:	079e2105 	ldreq	r2, [lr, r5, lsl #2]
     c04:	0206301f 	andeq	r3, r6, #31
     c08:	01c23319 	biceq	r3, r2, r9, lsl r3
     c0c:	078e3105 	streq	r3, [lr, r5, lsl #2]
     c10:	eaffff79 	b	9fc <free_ex+0x10c>
     c14:	e592e00c 	ldr	lr, [r2, #12]
     c18:	e35e0000 	cmp	lr, #0
     c1c:	e583e06c 	str	lr, [r3, #108]	; 0x6c
     c20:	1affff55 	bne	97c <free_ex+0x8c>
     c24:	e2863002 	add	r3, r6, #2
     c28:	e0813103 	add	r3, r1, r3, lsl #2
     c2c:	e2837004 	add	r7, r3, #4
     c30:	e1a092c5 	asr	r9, r5, #5
     c34:	e797e109 	ldr	lr, [r7, r9, lsl #2]
     c38:	e205501f 	and	r5, r5, #31
     c3c:	e3a08001 	mov	r8, #1
     c40:	e1ce5518 	bic	r5, lr, r8, lsl r5
     c44:	e7875109 	str	r5, [r7, r9, lsl #2]
     c48:	e5933004 	ldr	r3, [r3, #4]
     c4c:	e3530000 	cmp	r3, #0
     c50:	1affff49 	bne	97c <free_ex+0x8c>
     c54:	e1a052c6 	asr	r5, r6, #5
     c58:	e281e008 	add	lr, r1, #8
     c5c:	e79e3105 	ldr	r3, [lr, r5, lsl #2]
     c60:	e206601f 	and	r6, r6, #31
     c64:	e1c36618 	bic	r6, r3, r8, lsl r6
     c68:	e78e6105 	str	r6, [lr, r5, lsl #2]
     c6c:	eaffff43 	b	980 <free_ex+0x90>
     c70:	e3530401 	cmp	r3, #16777216	; 0x1000000
     c74:	23a05018 	movcs	r5, #24
     c78:	21a02005 	movcs	r2, r5
     c7c:	33a05010 	movcc	r5, #16
     c80:	31a02005 	movcc	r2, r5
     c84:	eaffffc3 	b	b98 <free_ex+0x2a8>
     c88:	e3a05000 	mov	r5, #0
     c8c:	e1a02005 	mov	r2, r5
     c90:	eaffffc0 	b	b98 <free_ex+0x2a8>
     c94:	00015708 	andeq	r5, r1, r8, lsl #14
     c98:	00000064 	andeq	r0, r0, r4, rrx

00000c9c <init_memory_pool>:
     c9c:	e92d40f8 	push	{r3, r4, r5, r6, r7, lr}
     ca0:	e59f310c 	ldr	r3, [pc, #268]	; db4 <init_memory_pool+0x118>
     ca4:	e59f210c 	ldr	r2, [pc, #268]	; db8 <init_memory_pool+0x11c>
     ca8:	e3510000 	cmp	r1, #0
     cac:	11500003 	cmpne	r0, r3
     cb0:	e1a04000 	mov	r4, r0
     cb4:	e08f2002 	add	r2, pc, r2
     cb8:	8a000005 	bhi	cd4 <init_memory_pool+0x38>
     cbc:	e59f30f8 	ldr	r3, [pc, #248]	; dbc <init_memory_pool+0x120>
     cc0:	e3a00003 	mov	r0, #3
     cc4:	e7921003 	ldr	r1, [r2, r3]
     cc8:	ebfffd96 	bl	328 <syslog>
     ccc:	e3e00000 	mvn	r0, #0
     cd0:	e8bd80f8 	pop	{r3, r4, r5, r6, r7, pc}
     cd4:	e2116003 	ands	r6, r1, #3
     cd8:	e1a05001 	mov	r5, r1
     cdc:	1a000029 	bne	d88 <init_memory_pool+0xec>
     ce0:	e5913000 	ldr	r3, [r1]
     ce4:	e59f70d4 	ldr	r7, [pc, #212]	; dc0 <init_memory_pool+0x124>
     ce8:	e1530007 	cmp	r3, r7
     cec:	e59f30d0 	ldr	r3, [pc, #208]	; dc4 <init_memory_pool+0x128>
     cf0:	0a00002a 	beq	da0 <init_memory_pool+0x104>
     cf4:	e7923003 	ldr	r3, [r2, r3]
     cf8:	e1a00001 	mov	r0, r1
     cfc:	e59f20c4 	ldr	r2, [pc, #196]	; dc8 <init_memory_pool+0x12c>
     d00:	e1a01006 	mov	r1, r6
     d04:	e5835000 	str	r5, [r3]
     d08:	eb00212b 	bl	91bc <memset>
     d0c:	e2443ec6 	sub	r3, r4, #3168	; 0xc60
     d10:	e243300c 	sub	r3, r3, #12
     d14:	e3c33007 	bic	r3, r3, #7
     d18:	e2430018 	sub	r0, r3, #24
     d1c:	e2852d32 	add	r2, r5, #3200	; 0xc80
     d20:	e0821000 	add	r1, r2, r0
     d24:	e3a0e008 	mov	lr, #8
     d28:	e2433020 	sub	r3, r3, #32
     d2c:	e3a0c002 	mov	ip, #2
     d30:	e5857000 	str	r7, [r5]
     d34:	e585ec74 	str	lr, [r5, #3188]	; 0xc74
     d38:	e5853c84 	str	r3, [r5, #3204]	; 0xc84
     d3c:	e5856c8c 	str	r6, [r5, #3212]	; 0xc8c
     d40:	e5856c88 	str	r6, [r5, #3208]	; 0xc88
     d44:	e7822000 	str	r2, [r2, r0]
     d48:	e581c004 	str	ip, [r1, #4]
     d4c:	e5954c74 	ldr	r4, [r5, #3188]	; 0xc74
     d50:	e2857ec7 	add	r7, r5, #3184	; 0xc70
     d54:	e3c44003 	bic	r4, r4, #3
     d58:	e084400e 	add	r4, r4, lr
     d5c:	e0874004 	add	r4, r7, r4
     d60:	e5851c78 	str	r1, [r5, #3192]	; 0xc78
     d64:	e084000e 	add	r0, r4, lr
     d68:	e5856c7c 	str	r6, [r5, #3196]	; 0xc7c
     d6c:	e1a01005 	mov	r1, r5
     d70:	e2877008 	add	r7, r7, #8
     d74:	ebfffedd 	bl	8f0 <free_ex>
     d78:	e5857004 	str	r7, [r5, #4]
     d7c:	e5940004 	ldr	r0, [r4, #4]
     d80:	e3c00003 	bic	r0, r0, #3
     d84:	e8bd80f8 	pop	{r3, r4, r5, r6, r7, pc}
     d88:	e59f303c 	ldr	r3, [pc, #60]	; dcc <init_memory_pool+0x130>
     d8c:	e3a00003 	mov	r0, #3
     d90:	e7921003 	ldr	r1, [r2, r3]
     d94:	ebfffd63 	bl	328 <syslog>
     d98:	e3e00000 	mvn	r0, #0
     d9c:	e8bd80f8 	pop	{r3, r4, r5, r6, r7, pc}
     da0:	e5910c74 	ldr	r0, [r1, #3188]	; 0xc74
     da4:	e7923003 	ldr	r3, [r2, r3]
     da8:	e3c00003 	bic	r0, r0, #3
     dac:	e5831000 	str	r1, [r3]
     db0:	e8bd80f8 	pop	{r3, r4, r5, r6, r7, pc}
     db4:	00000cab 	andeq	r0, r0, fp, lsr #25
     db8:	00015350 	andeq	r5, r1, r0, asr r3
     dbc:	00000068 	andeq	r0, r0, r8, rrx
     dc0:	2a59fa59 	bcs	167f72c <errno+0x1664f7c>
     dc4:	00000070 	andeq	r0, r0, r0, ror r0
     dc8:	00000c6c 	andeq	r0, r0, ip, ror #24
     dcc:	0000006c 	andeq	r0, r0, ip, rrx

00000dd0 <add_new_area>:
     dd0:	e92d41f0 	push	{r4, r5, r6, r7, r8, lr}
     dd4:	e1a06001 	mov	r6, r1
     dd8:	e1a05002 	mov	r5, r2
     ddc:	e1a02006 	mov	r2, r6
     de0:	e2466020 	sub	r6, r6, #32
     de4:	e1a04000 	mov	r4, r0
     de8:	e3c66007 	bic	r6, r6, #7
     dec:	e3a01000 	mov	r1, #0
     df0:	eb0020f1 	bl	91bc <memset>
     df4:	e2860008 	add	r0, r6, #8
     df8:	e2842010 	add	r2, r4, #16
     dfc:	e3a0e000 	mov	lr, #0
     e00:	e3a07008 	mov	r7, #8
     e04:	e0821000 	add	r1, r2, r0
     e08:	e3a0c002 	mov	ip, #2
     e0c:	e5953004 	ldr	r3, [r5, #4]
     e10:	e5846014 	str	r6, [r4, #20]
     e14:	e5847004 	str	r7, [r4, #4]
     e18:	e584e01c 	str	lr, [r4, #28]
     e1c:	e584e018 	str	lr, [r4, #24]
     e20:	e7822000 	str	r2, [r2, r0]
     e24:	e581c004 	str	ip, [r1, #4]
     e28:	e5946004 	ldr	r6, [r4, #4]
     e2c:	e5841008 	str	r1, [r4, #8]
     e30:	e3c66003 	bic	r6, r6, #3
     e34:	e0866007 	add	r6, r6, r7
     e38:	e0846006 	add	r6, r4, r6
     e3c:	e584e00c 	str	lr, [r4, #12]
     e40:	e5968004 	ldr	r8, [r6, #4]
     e44:	e153000e 	cmp	r3, lr
     e48:	e3c88003 	bic	r8, r8, #3
     e4c:	e0888007 	add	r8, r8, r7
     e50:	e0868008 	add	r8, r6, r8
     e54:	1a000007 	bne	e78 <add_new_area+0xa8>
     e58:	ea000021 	b	ee4 <add_new_area+0x114>
     e5c:	e2821008 	add	r1, r2, #8
     e60:	e1540001 	cmp	r4, r1
     e64:	0a000029 	beq	f10 <add_new_area+0x140>
     e68:	e1a0e003 	mov	lr, r3
     e6c:	e5933004 	ldr	r3, [r3, #4]
     e70:	e3530000 	cmp	r3, #0
     e74:	0a00001a 	beq	ee4 <add_new_area+0x114>
     e78:	e2882008 	add	r2, r8, #8
     e7c:	e2430008 	sub	r0, r3, #8
     e80:	e1500002 	cmp	r0, r2
     e84:	e513c004 	ldr	ip, [r3, #-4]
     e88:	e5932000 	ldr	r2, [r3]
     e8c:	1afffff2 	bne	e5c <add_new_area+0x8c>
     e90:	e5951004 	ldr	r1, [r5, #4]
     e94:	e3ccc003 	bic	ip, ip, #3
     e98:	e1510003 	cmp	r1, r3
     e9c:	e5931004 	ldr	r1, [r3, #4]
     ea0:	e28cc008 	add	ip, ip, #8
     ea4:	05851004 	streq	r1, [r5, #4]
     ea8:	158e1004 	strne	r1, [lr, #4]
     eac:	e5937004 	ldr	r7, [r3, #4]
     eb0:	e5131004 	ldr	r1, [r3, #-4]
     eb4:	e5963004 	ldr	r3, [r6, #4]
     eb8:	e3c11003 	bic	r1, r1, #3
     ebc:	e3c33003 	bic	r3, r3, #3
     ec0:	e0831001 	add	r1, r3, r1
     ec4:	e2811010 	add	r1, r1, #16
     ec8:	e1a03007 	mov	r3, r7
     ecc:	e3c11007 	bic	r1, r1, #7
     ed0:	e3530000 	cmp	r3, #0
     ed4:	e5861004 	str	r1, [r6, #4]
     ed8:	e1a08002 	mov	r8, r2
     edc:	e780600c 	str	r6, [r0, ip]
     ee0:	1affffe4 	bne	e78 <add_new_area+0xa8>
     ee4:	e5952004 	ldr	r2, [r5, #4]
     ee8:	e1a03004 	mov	r3, r4
     eec:	e584200c 	str	r2, [r4, #12]
     ef0:	e2860008 	add	r0, r6, #8
     ef4:	e5a38008 	str	r8, [r3, #8]!
     ef8:	e1a01005 	mov	r1, r5
     efc:	e5853004 	str	r3, [r5, #4]
     f00:	ebfffe7a 	bl	8f0 <free_ex>
     f04:	e5960004 	ldr	r0, [r6, #4]
     f08:	e3c00003 	bic	r0, r0, #3
     f0c:	e8bd81f0 	pop	{r4, r5, r6, r7, r8, pc}
     f10:	e5951004 	ldr	r1, [r5, #4]
     f14:	e1510003 	cmp	r1, r3
     f18:	e5931004 	ldr	r1, [r3, #4]
     f1c:	05851004 	streq	r1, [r5, #4]
     f20:	158e1004 	strne	r1, [lr, #4]
     f24:	e5961004 	ldr	r1, [r6, #4]
     f28:	e5944004 	ldr	r4, [r4, #4]
     f2c:	e3c1c003 	bic	ip, r1, #3
     f30:	e3c41003 	bic	r1, r4, #3
     f34:	e5924004 	ldr	r4, [r2, #4]
     f38:	e08c1001 	add	r1, ip, r1
     f3c:	e2811010 	add	r1, r1, #16
     f40:	e204c002 	and	ip, r4, #2
     f44:	e3c11007 	bic	r1, r1, #7
     f48:	e181100c 	orr	r1, r1, ip
     f4c:	e3c1c003 	bic	ip, r1, #3
     f50:	e28cc008 	add	ip, ip, #8
     f54:	e5933004 	ldr	r3, [r3, #4]
     f58:	e1a04000 	mov	r4, r0
     f5c:	e5821004 	str	r1, [r2, #4]
     f60:	e1a06002 	mov	r6, r2
     f64:	e782200c 	str	r2, [r2, ip]
     f68:	eaffffc0 	b	e70 <add_new_area+0xa0>

00000f6c <tlsf_free>:
     f6c:	e59f3010 	ldr	r3, [pc, #16]	; f84 <tlsf_free+0x18>
     f70:	e59f2010 	ldr	r2, [pc, #16]	; f88 <tlsf_free+0x1c>
     f74:	e08f3003 	add	r3, pc, r3
     f78:	e7933002 	ldr	r3, [r3, r2]
     f7c:	e5931000 	ldr	r1, [r3]
     f80:	eafffe5a 	b	8f0 <free_ex>
     f84:	00015090 	muleq	r1, r0, r0
     f88:	00000070 	andeq	r0, r0, r0, ror r0

00000f8c <realloc_ex>:
     f8c:	e59fc590 	ldr	ip, [pc, #1424]	; 1524 <realloc_ex+0x598>
     f90:	e92d4ff8 	push	{r3, r4, r5, r6, r7, r8, r9, sl, fp, lr}
     f94:	e2503000 	subs	r3, r0, #0
     f98:	e08fc00c 	add	ip, pc, ip
     f9c:	0a0000e7 	beq	1340 <realloc_ex+0x3b4>
     fa0:	e3510000 	cmp	r1, #0
     fa4:	e1a06002 	mov	r6, r2
     fa8:	e1a04001 	mov	r4, r1
     fac:	e1a05003 	mov	r5, r3
     fb0:	0a000102 	beq	13c0 <realloc_ex+0x434>
     fb4:	e5132004 	ldr	r2, [r3, #-4]
     fb8:	e3510007 	cmp	r1, #7
     fbc:	82810007 	addhi	r0, r1, #7
     fc0:	e3c23003 	bic	r3, r2, #3
     fc4:	83c04007 	bichi	r4, r0, #7
     fc8:	93a04008 	movls	r4, #8
     fcc:	e085e003 	add	lr, r5, r3
     fd0:	e1540003 	cmp	r4, r3
     fd4:	e2457008 	sub	r7, r5, #8
     fd8:	e59e2004 	ldr	r2, [lr, #4]
     fdc:	8a00004a 	bhi	110c <realloc_ex+0x180>
     fe0:	e3120001 	tst	r2, #1
     fe4:	0a00001a 	beq	1054 <realloc_ex+0xc8>
     fe8:	e3c22003 	bic	r2, r2, #3
     fec:	e352007f 	cmp	r2, #127	; 0x7f
     ff0:	8a0000c1 	bhi	12fc <realloc_ex+0x370>
     ff4:	e1a02122 	lsr	r2, r2, #2
     ff8:	e3a00000 	mov	r0, #0
     ffc:	e59e100c 	ldr	r1, [lr, #12]
    1000:	e3510000 	cmp	r1, #0
    1004:	159e8008 	ldrne	r8, [lr, #8]
    1008:	15818008 	strne	r8, [r1, #8]
    100c:	e59e1008 	ldr	r1, [lr, #8]
    1010:	e3510000 	cmp	r1, #0
    1014:	159e800c 	ldrne	r8, [lr, #12]
    1018:	1581800c 	strne	r8, [r1, #12]
    101c:	e0821280 	add	r1, r2, r0, lsl #5
    1020:	e0861101 	add	r1, r6, r1, lsl #2
    1024:	e591806c 	ldr	r8, [r1, #108]	; 0x6c
    1028:	e158000e 	cmp	r8, lr
    102c:	0a0000e7 	beq	13d0 <realloc_ex+0x444>
    1030:	e59e2004 	ldr	r2, [lr, #4]
    1034:	e3a01000 	mov	r1, #0
    1038:	e3c22003 	bic	r2, r2, #3
    103c:	e0833002 	add	r3, r3, r2
    1040:	e2822008 	add	r2, r2, #8
    1044:	e58e1008 	str	r1, [lr, #8]
    1048:	e58e100c 	str	r1, [lr, #12]
    104c:	e2833008 	add	r3, r3, #8
    1050:	e08ee002 	add	lr, lr, r2
    1054:	e0641003 	rsb	r1, r4, r3
    1058:	e351000f 	cmp	r1, #15
    105c:	9a000028 	bls	1104 <realloc_ex+0x178>
    1060:	e2411008 	sub	r1, r1, #8
    1064:	e2843008 	add	r3, r4, #8
    1068:	e0877003 	add	r7, r7, r3
    106c:	e3812001 	orr	r2, r1, #1
    1070:	e5872004 	str	r2, [r7, #4]
    1074:	e59e3004 	ldr	r3, [lr, #4]
    1078:	e351007f 	cmp	r1, #127	; 0x7f
    107c:	e3833002 	orr	r3, r3, #2
    1080:	e58e7000 	str	r7, [lr]
    1084:	e58e3004 	str	r3, [lr, #4]
    1088:	8a000085 	bhi	12a4 <realloc_ex+0x318>
    108c:	e3a0c000 	mov	ip, #0
    1090:	e1a01121 	lsr	r1, r1, #2
    1094:	e1a0200c 	mov	r2, ip
    1098:	e3a03001 	mov	r3, #1
    109c:	e081e282 	add	lr, r1, r2, lsl #5
    10a0:	e086e10e 	add	lr, r6, lr, lsl #2
    10a4:	e3a00000 	mov	r0, #0
    10a8:	e5870008 	str	r0, [r7, #8]
    10ac:	e59e006c 	ldr	r0, [lr, #108]	; 0x6c
    10b0:	e0862102 	add	r2, r6, r2, lsl #2
    10b4:	e587000c 	str	r0, [r7, #12]
    10b8:	e59e006c 	ldr	r0, [lr, #108]	; 0x6c
    10bc:	e282200c 	add	r2, r2, #12
    10c0:	e1a082c1 	asr	r8, r1, #5
    10c4:	e3500000 	cmp	r0, #0
    10c8:	15807008 	strne	r7, [r0, #8]
    10cc:	e58e706c 	str	r7, [lr, #108]	; 0x6c
    10d0:	e7920108 	ldr	r0, [r2, r8, lsl #2]
    10d4:	e201101f 	and	r1, r1, #31
    10d8:	e3a0e001 	mov	lr, #1
    10dc:	e180111e 	orr	r1, r0, lr, lsl r1
    10e0:	e2866008 	add	r6, r6, #8
    10e4:	e7821108 	str	r1, [r2, r8, lsl #2]
    10e8:	e796200c 	ldr	r2, [r6, ip]
    10ec:	e1823003 	orr	r3, r2, r3
    10f0:	e786300c 	str	r3, [r6, ip]
    10f4:	e5150004 	ldr	r0, [r5, #-4]
    10f8:	e2000002 	and	r0, r0, #2
    10fc:	e1844000 	orr	r4, r4, r0
    1100:	e5054004 	str	r4, [r5, #-4]
    1104:	e1a00005 	mov	r0, r5
    1108:	e8bd8ff8 	pop	{r3, r4, r5, r6, r7, r8, r9, sl, fp, pc}
    110c:	e3120001 	tst	r2, #1
    1110:	0a000052 	beq	1260 <realloc_ex+0x2d4>
    1114:	e3c22003 	bic	r2, r2, #3
    1118:	e0823003 	add	r3, r2, r3
    111c:	e1540003 	cmp	r4, r3
    1120:	8a00004e 	bhi	1260 <realloc_ex+0x2d4>
    1124:	e352007f 	cmp	r2, #127	; 0x7f
    1128:	8a000093 	bhi	137c <realloc_ex+0x3f0>
    112c:	e1a02122 	lsr	r2, r2, #2
    1130:	e3a01000 	mov	r1, #0
    1134:	e59e300c 	ldr	r3, [lr, #12]
    1138:	e3530000 	cmp	r3, #0
    113c:	159e0008 	ldrne	r0, [lr, #8]
    1140:	15830008 	strne	r0, [r3, #8]
    1144:	e59e3008 	ldr	r3, [lr, #8]
    1148:	e3530000 	cmp	r3, #0
    114c:	159e000c 	ldrne	r0, [lr, #12]
    1150:	1583000c 	strne	r0, [r3, #12]
    1154:	e0823281 	add	r3, r2, r1, lsl #5
    1158:	e0863103 	add	r3, r6, r3, lsl #2
    115c:	e593006c 	ldr	r0, [r3, #108]	; 0x6c
    1160:	e150000e 	cmp	r0, lr
    1164:	0a0000c9 	beq	1490 <realloc_ex+0x504>
    1168:	e3a02000 	mov	r2, #0
    116c:	e58e2008 	str	r2, [lr, #8]
    1170:	e58e200c 	str	r2, [lr, #12]
    1174:	e59e1004 	ldr	r1, [lr, #4]
    1178:	e5153004 	ldr	r3, [r5, #-4]
    117c:	e3c11003 	bic	r1, r1, #3
    1180:	e2833008 	add	r3, r3, #8
    1184:	e0833001 	add	r3, r3, r1
    1188:	e3c31003 	bic	r1, r3, #3
    118c:	e2811008 	add	r1, r1, #8
    1190:	e0870001 	add	r0, r7, r1
    1194:	e5053004 	str	r3, [r5, #-4]
    1198:	e7877001 	str	r7, [r7, r1]
    119c:	e5903004 	ldr	r3, [r0, #4]
    11a0:	e3c33002 	bic	r3, r3, #2
    11a4:	e5803004 	str	r3, [r0, #4]
    11a8:	e5153004 	ldr	r3, [r5, #-4]
    11ac:	e3c33003 	bic	r3, r3, #3
    11b0:	e0643003 	rsb	r3, r4, r3
    11b4:	e353000f 	cmp	r3, #15
    11b8:	9affffd1 	bls	1104 <realloc_ex+0x178>
    11bc:	e2433008 	sub	r3, r3, #8
    11c0:	e284e008 	add	lr, r4, #8
    11c4:	e087e00e 	add	lr, r7, lr
    11c8:	e3838001 	orr	r8, r3, #1
    11cc:	e58e8004 	str	r8, [lr, #4]
    11d0:	e787e001 	str	lr, [r7, r1]
    11d4:	e5901004 	ldr	r1, [r0, #4]
    11d8:	e353007f 	cmp	r3, #127	; 0x7f
    11dc:	e3811002 	orr	r1, r1, #2
    11e0:	e5801004 	str	r1, [r0, #4]
    11e4:	8a000093 	bhi	1438 <realloc_ex+0x4ac>
    11e8:	e1a03123 	lsr	r3, r3, #2
    11ec:	e1a01002 	mov	r1, r2
    11f0:	e3a0c001 	mov	ip, #1
    11f4:	e0830281 	add	r0, r3, r1, lsl #5
    11f8:	e0860100 	add	r0, r6, r0, lsl #2
    11fc:	e3a07000 	mov	r7, #0
    1200:	e58e7008 	str	r7, [lr, #8]
    1204:	e590706c 	ldr	r7, [r0, #108]	; 0x6c
    1208:	e0861101 	add	r1, r6, r1, lsl #2
    120c:	e58e700c 	str	r7, [lr, #12]
    1210:	e590706c 	ldr	r7, [r0, #108]	; 0x6c
    1214:	e281100c 	add	r1, r1, #12
    1218:	e3570000 	cmp	r7, #0
    121c:	1587e008 	strne	lr, [r7, #8]
    1220:	e1a072c3 	asr	r7, r3, #5
    1224:	e580e06c 	str	lr, [r0, #108]	; 0x6c
    1228:	e7910107 	ldr	r0, [r1, r7, lsl #2]
    122c:	e203301f 	and	r3, r3, #31
    1230:	e3a0e001 	mov	lr, #1
    1234:	e180331e 	orr	r3, r0, lr, lsl r3
    1238:	e2866008 	add	r6, r6, #8
    123c:	e7813107 	str	r3, [r1, r7, lsl #2]
    1240:	e7963002 	ldr	r3, [r6, r2]
    1244:	e183c00c 	orr	ip, r3, ip
    1248:	e786c002 	str	ip, [r6, r2]
    124c:	e5152004 	ldr	r2, [r5, #-4]
    1250:	e2022002 	and	r2, r2, #2
    1254:	e1844002 	orr	r4, r4, r2
    1258:	e5054004 	str	r4, [r5, #-4]
    125c:	eaffffa8 	b	1104 <realloc_ex+0x178>
    1260:	e1a00004 	mov	r0, r4
    1264:	e1a01006 	mov	r1, r6
    1268:	ebfffca9 	bl	514 <malloc_ex>
    126c:	e2507000 	subs	r7, r0, #0
    1270:	0a0000a9 	beq	151c <realloc_ex+0x590>
    1274:	e5153004 	ldr	r3, [r5, #-4]
    1278:	e1a01005 	mov	r1, r5
    127c:	e3c33003 	bic	r3, r3, #3
    1280:	e1540003 	cmp	r4, r3
    1284:	31a02004 	movcc	r2, r4
    1288:	21a02003 	movcs	r2, r3
    128c:	eb001f8e 	bl	90cc <memcpy>
    1290:	e1a00005 	mov	r0, r5
    1294:	e1a01006 	mov	r1, r6
    1298:	ebfffd94 	bl	8f0 <free_ex>
    129c:	e1a00007 	mov	r0, r7
    12a0:	e8bd8ff8 	pop	{r3, r4, r5, r6, r7, r8, r9, sl, fp, pc}
    12a4:	e3510801 	cmp	r1, #65536	; 0x10000
    12a8:	3a000027 	bcc	134c <realloc_ex+0x3c0>
    12ac:	e3510401 	cmp	r1, #16777216	; 0x1000000
    12b0:	23a03018 	movcs	r3, #24
    12b4:	21a02003 	movcs	r2, r3
    12b8:	33a03010 	movcc	r3, #16
    12bc:	31a02003 	movcc	r2, r3
    12c0:	e59fe260 	ldr	lr, [pc, #608]	; 1528 <realloc_ex+0x59c>
    12c4:	e1a00331 	lsr	r0, r1, r3
    12c8:	e79c300e 	ldr	r3, [ip, lr]
    12cc:	e3a0c001 	mov	ip, #1
    12d0:	e7933100 	ldr	r3, [r3, r0, lsl #2]
    12d4:	e0822003 	add	r2, r2, r3
    12d8:	e2423005 	sub	r3, r2, #5
    12dc:	e2422006 	sub	r2, r2, #6
    12e0:	e1a01331 	lsr	r1, r1, r3
    12e4:	e202301f 	and	r3, r2, #31
    12e8:	e1a0331c 	lsl	r3, ip, r3
    12ec:	e1a0c2c2 	asr	ip, r2, #5
    12f0:	e2411020 	sub	r1, r1, #32
    12f4:	e1a0c10c 	lsl	ip, ip, #2
    12f8:	eaffff67 	b	109c <realloc_ex+0x110>
    12fc:	e3520801 	cmp	r2, #65536	; 0x10000
    1300:	3a000017 	bcc	1364 <realloc_ex+0x3d8>
    1304:	e3520401 	cmp	r2, #16777216	; 0x1000000
    1308:	23a00018 	movcs	r0, #24
    130c:	21a01000 	movcs	r1, r0
    1310:	33a00010 	movcc	r0, #16
    1314:	31a01000 	movcc	r1, r0
    1318:	e59f8208 	ldr	r8, [pc, #520]	; 1528 <realloc_ex+0x59c>
    131c:	e1a00032 	lsr	r0, r2, r0
    1320:	e79c8008 	ldr	r8, [ip, r8]
    1324:	e7980100 	ldr	r0, [r8, r0, lsl #2]
    1328:	e0810000 	add	r0, r1, r0
    132c:	e2401005 	sub	r1, r0, #5
    1330:	e1a02132 	lsr	r2, r2, r1
    1334:	e2400006 	sub	r0, r0, #6
    1338:	e2422020 	sub	r2, r2, #32
    133c:	eaffff2e 	b	ffc <realloc_ex+0x70>
    1340:	e2510000 	subs	r0, r1, #0
    1344:	1a000038 	bne	142c <realloc_ex+0x4a0>
    1348:	e8bd8ff8 	pop	{r3, r4, r5, r6, r7, r8, r9, sl, fp, pc}
    134c:	e35100ff 	cmp	r1, #255	; 0xff
    1350:	83a03008 	movhi	r3, #8
    1354:	81a02003 	movhi	r2, r3
    1358:	93a03000 	movls	r3, #0
    135c:	91a02003 	movls	r2, r3
    1360:	eaffffd6 	b	12c0 <realloc_ex+0x334>
    1364:	e35200ff 	cmp	r2, #255	; 0xff
    1368:	83a00008 	movhi	r0, #8
    136c:	81a01000 	movhi	r1, r0
    1370:	93a00000 	movls	r0, #0
    1374:	91a01000 	movls	r1, r0
    1378:	eaffffe6 	b	1318 <realloc_ex+0x38c>
    137c:	e3520801 	cmp	r2, #65536	; 0x10000
    1380:	2a000059 	bcs	14ec <realloc_ex+0x560>
    1384:	e35200ff 	cmp	r2, #255	; 0xff
    1388:	83a01008 	movhi	r1, #8
    138c:	81a03001 	movhi	r3, r1
    1390:	93a01000 	movls	r1, #0
    1394:	91a03001 	movls	r3, r1
    1398:	e59f0188 	ldr	r0, [pc, #392]	; 1528 <realloc_ex+0x59c>
    139c:	e1a01132 	lsr	r1, r2, r1
    13a0:	e79c0000 	ldr	r0, [ip, r0]
    13a4:	e7901101 	ldr	r1, [r0, r1, lsl #2]
    13a8:	e0831001 	add	r1, r3, r1
    13ac:	e2413005 	sub	r3, r1, #5
    13b0:	e1a02332 	lsr	r2, r2, r3
    13b4:	e2411006 	sub	r1, r1, #6
    13b8:	e2422020 	sub	r2, r2, #32
    13bc:	eaffff5c 	b	1134 <realloc_ex+0x1a8>
    13c0:	e1a01002 	mov	r1, r2
    13c4:	ebfffd49 	bl	8f0 <free_ex>
    13c8:	e1a00004 	mov	r0, r4
    13cc:	e8bd8ff8 	pop	{r3, r4, r5, r6, r7, r8, r9, sl, fp, pc}
    13d0:	e59e800c 	ldr	r8, [lr, #12]
    13d4:	e3580000 	cmp	r8, #0
    13d8:	e581806c 	str	r8, [r1, #108]	; 0x6c
    13dc:	1affff13 	bne	1030 <realloc_ex+0xa4>
    13e0:	e2801002 	add	r1, r0, #2
    13e4:	e0861101 	add	r1, r6, r1, lsl #2
    13e8:	e1a0a2c2 	asr	sl, r2, #5
    13ec:	e2819004 	add	r9, r1, #4
    13f0:	e799810a 	ldr	r8, [r9, sl, lsl #2]
    13f4:	e202201f 	and	r2, r2, #31
    13f8:	e3a0b001 	mov	fp, #1
    13fc:	e1c8221b 	bic	r2, r8, fp, lsl r2
    1400:	e789210a 	str	r2, [r9, sl, lsl #2]
    1404:	e5912004 	ldr	r2, [r1, #4]
    1408:	e3520000 	cmp	r2, #0
    140c:	1affff07 	bne	1030 <realloc_ex+0xa4>
    1410:	e1a082c0 	asr	r8, r0, #5
    1414:	e2861008 	add	r1, r6, #8
    1418:	e7912108 	ldr	r2, [r1, r8, lsl #2]
    141c:	e200001f 	and	r0, r0, #31
    1420:	e1c2001b 	bic	r0, r2, fp, lsl r0
    1424:	e7810108 	str	r0, [r1, r8, lsl #2]
    1428:	eaffff00 	b	1030 <realloc_ex+0xa4>
    142c:	e1a01002 	mov	r1, r2
    1430:	e8bd4ff8 	pop	{r3, r4, r5, r6, r7, r8, r9, sl, fp, lr}
    1434:	eafffc36 	b	514 <malloc_ex>
    1438:	e3530801 	cmp	r3, #65536	; 0x10000
    143c:	2a000030 	bcs	1504 <realloc_ex+0x578>
    1440:	e35300ff 	cmp	r3, #255	; 0xff
    1444:	83a02008 	movhi	r2, #8
    1448:	81a01002 	movhi	r1, r2
    144c:	8a000000 	bhi	1454 <realloc_ex+0x4c8>
    1450:	e1a01002 	mov	r1, r2
    1454:	e59f00cc 	ldr	r0, [pc, #204]	; 1528 <realloc_ex+0x59c>
    1458:	e1a02233 	lsr	r2, r3, r2
    145c:	e79c0000 	ldr	r0, [ip, r0]
    1460:	e3a0c001 	mov	ip, #1
    1464:	e7902102 	ldr	r2, [r0, r2, lsl #2]
    1468:	e0811002 	add	r1, r1, r2
    146c:	e2412005 	sub	r2, r1, #5
    1470:	e2411006 	sub	r1, r1, #6
    1474:	e1a03233 	lsr	r3, r3, r2
    1478:	e201201f 	and	r2, r1, #31
    147c:	e1a0c21c 	lsl	ip, ip, r2
    1480:	e1a022c1 	asr	r2, r1, #5
    1484:	e2433020 	sub	r3, r3, #32
    1488:	e1a02102 	lsl	r2, r2, #2
    148c:	eaffff58 	b	11f4 <realloc_ex+0x268>
    1490:	e59e000c 	ldr	r0, [lr, #12]
    1494:	e3500000 	cmp	r0, #0
    1498:	e583006c 	str	r0, [r3, #108]	; 0x6c
    149c:	1affff31 	bne	1168 <realloc_ex+0x1dc>
    14a0:	e2813002 	add	r3, r1, #2
    14a4:	e0863103 	add	r3, r6, r3, lsl #2
    14a8:	e2830004 	add	r0, r3, #4
    14ac:	e1a082c2 	asr	r8, r2, #5
    14b0:	e790a108 	ldr	sl, [r0, r8, lsl #2]
    14b4:	e202201f 	and	r2, r2, #31
    14b8:	e3a09001 	mov	r9, #1
    14bc:	e1ca2219 	bic	r2, sl, r9, lsl r2
    14c0:	e7802108 	str	r2, [r0, r8, lsl #2]
    14c4:	e5933004 	ldr	r3, [r3, #4]
    14c8:	e3530000 	cmp	r3, #0
    14cc:	1affff25 	bne	1168 <realloc_ex+0x1dc>
    14d0:	e1a002c1 	asr	r0, r1, #5
    14d4:	e2862008 	add	r2, r6, #8
    14d8:	e7923100 	ldr	r3, [r2, r0, lsl #2]
    14dc:	e201101f 	and	r1, r1, #31
    14e0:	e1c31119 	bic	r1, r3, r9, lsl r1
    14e4:	e7821100 	str	r1, [r2, r0, lsl #2]
    14e8:	eaffff1e 	b	1168 <realloc_ex+0x1dc>
    14ec:	e3520401 	cmp	r2, #16777216	; 0x1000000
    14f0:	23a01018 	movcs	r1, #24
    14f4:	21a03001 	movcs	r3, r1
    14f8:	33a01010 	movcc	r1, #16
    14fc:	31a03001 	movcc	r3, r1
    1500:	eaffffa4 	b	1398 <realloc_ex+0x40c>
    1504:	e3530401 	cmp	r3, #16777216	; 0x1000000
    1508:	23a02018 	movcs	r2, #24
    150c:	21a01002 	movcs	r1, r2
    1510:	2affffcf 	bcs	1454 <realloc_ex+0x4c8>
    1514:	e3a02010 	mov	r2, #16
    1518:	eaffffcc 	b	1450 <realloc_ex+0x4c4>
    151c:	e1a00007 	mov	r0, r7
    1520:	e8bd8ff8 	pop	{r3, r4, r5, r6, r7, r8, r9, sl, fp, pc}
    1524:	0001506c 	andeq	r5, r1, ip, rrx
    1528:	00000064 	andeq	r0, r0, r4, rrx

0000152c <tlsf_realloc>:
    152c:	e59f3010 	ldr	r3, [pc, #16]	; 1544 <tlsf_realloc+0x18>
    1530:	e59f2010 	ldr	r2, [pc, #16]	; 1548 <tlsf_realloc+0x1c>
    1534:	e08f3003 	add	r3, pc, r3
    1538:	e7933002 	ldr	r3, [r3, r2]
    153c:	e5932000 	ldr	r2, [r3]
    1540:	eafffe91 	b	f8c <realloc_ex>
    1544:	00014ad0 	ldrdeq	r4, [r1], -r0
    1548:	00000070 	andeq	r0, r0, r0, ror r0

0000154c <calloc_ex>:
    154c:	e3510000 	cmp	r1, #0
    1550:	13500000 	cmpne	r0, #0
    1554:	e92d4070 	push	{r4, r5, r6, lr}
    1558:	03a06001 	moveq	r6, #1
    155c:	13a06000 	movne	r6, #0
    1560:	0a00000b 	beq	1594 <calloc_ex+0x48>
    1564:	e1a03001 	mov	r3, r1
    1568:	e0040093 	mul	r4, r3, r0
    156c:	e1a01002 	mov	r1, r2
    1570:	e1a00004 	mov	r0, r4
    1574:	ebfffbe6 	bl	514 <malloc_ex>
    1578:	e2505000 	subs	r5, r0, #0
    157c:	0a000006 	beq	159c <calloc_ex+0x50>
    1580:	e1a01006 	mov	r1, r6
    1584:	e1a02004 	mov	r2, r4
    1588:	eb001f0b 	bl	91bc <memset>
    158c:	e1a00005 	mov	r0, r5
    1590:	e8bd8070 	pop	{r4, r5, r6, pc}
    1594:	e3a00000 	mov	r0, #0
    1598:	e8bd8070 	pop	{r4, r5, r6, pc}
    159c:	e1a00005 	mov	r0, r5
    15a0:	e8bd8070 	pop	{r4, r5, r6, pc}

000015a4 <tlsf_calloc>:
    15a4:	e59f3010 	ldr	r3, [pc, #16]	; 15bc <tlsf_calloc+0x18>
    15a8:	e59f2010 	ldr	r2, [pc, #16]	; 15c0 <tlsf_calloc+0x1c>
    15ac:	e08f3003 	add	r3, pc, r3
    15b0:	e7933002 	ldr	r3, [r3, r2]
    15b4:	e5932000 	ldr	r2, [r3]
    15b8:	eaffffe3 	b	154c <calloc_ex>
    15bc:	00014a58 	andeq	r4, r1, r8, asr sl
    15c0:	00000070 	andeq	r0, r0, r0, ror r0

000015c4 <button_clicked_handler>:
    15c4:	e59f302c 	ldr	r3, [pc, #44]	; 15f8 <button_clicked_handler+0x34>
    15c8:	e2502000 	subs	r2, r0, #0
    15cc:	e08f3003 	add	r3, pc, r3
    15d0:	0a000004 	beq	15e8 <button_clicked_handler+0x24>
    15d4:	e3520005 	cmp	r2, #5
    15d8:	112fff1e 	bxne	lr
    15dc:	e59f2018 	ldr	r2, [pc, #24]	; 15fc <button_clicked_handler+0x38>
    15e0:	e7931002 	ldr	r1, [r3, r2]
    15e4:	eafffb4f 	b	328 <syslog>
    15e8:	e59f2010 	ldr	r2, [pc, #16]	; 1600 <button_clicked_handler+0x3c>
    15ec:	e3a00005 	mov	r0, #5
    15f0:	e7931002 	ldr	r1, [r3, r2]
    15f4:	eafffb4b 	b	328 <syslog>
    15f8:	00014a38 	andeq	r4, r1, r8, lsr sl
    15fc:	00000078 	andeq	r0, r0, r8, ror r0
    1600:	0000007c 	andeq	r0, r0, ip, ror r0

00001604 <balance_task>:
    1604:	e92d4ff0 	push	{r4, r5, r6, r7, r8, r9, sl, fp, lr}
    1608:	e59f8568 	ldr	r8, [pc, #1384]	; 1b78 <balance_task+0x574>
    160c:	e59f2568 	ldr	r2, [pc, #1384]	; 1b7c <balance_task+0x578>
    1610:	e08f8008 	add	r8, pc, r8
    1614:	e7986002 	ldr	r6, [r8, r2]
    1618:	e3a03000 	mov	r3, #0
    161c:	e24dd034 	sub	sp, sp, #52	; 0x34
    1620:	e1a00003 	mov	r0, r3
    1624:	e5863000 	str	r3, [r6]
    1628:	e5863004 	str	r3, [r6, #4]
    162c:	eb000b8b 	bl	4460 <ev3_motor_reset_counts>
    1630:	e3a00003 	mov	r0, #3
    1634:	eb000b89 	bl	4460 <ev3_motor_reset_counts>
    1638:	e3a00001 	mov	r0, #1
    163c:	eb001065 	bl	57d8 <ev3_gyro_sensor_reset>
    1640:	e59f3538 	ldr	r3, [pc, #1336]	; 1b80 <balance_task+0x57c>
    1644:	e3a00005 	mov	r0, #5
    1648:	e7981003 	ldr	r1, [r8, r3]
    164c:	e3a0300a 	mov	r3, #10
    1650:	e58d3004 	str	r3, [sp, #4]
    1654:	ebfffb33 	bl	328 <syslog>
    1658:	e3a0b0c8 	mov	fp, #200	; 0xc8
    165c:	e3a05ffa 	mov	r5, #1000	; 0x3e8
    1660:	e3e04063 	mvn	r4, #99	; 0x63
    1664:	e3a09000 	mov	r9, #0
    1668:	e3e0a00d 	mvn	sl, #13
    166c:	e3a00001 	mov	r0, #1
    1670:	eb001035 	bl	574c <ev3_gyro_sensor_get_rate>
    1674:	e1540000 	cmp	r4, r0
    1678:	b1a04000 	movlt	r4, r0
    167c:	e1550000 	cmp	r5, r0
    1680:	a1a05000 	movge	r5, r0
    1684:	e0899000 	add	r9, r9, r0
    1688:	e3a00004 	mov	r0, #4
    168c:	e1a0700a 	mov	r7, sl
    1690:	ef000001 	svc	0x00000001
    1694:	e25bb001 	subs	fp, fp, #1
    1698:	1afffff3 	bne	166c <balance_task+0x68>
    169c:	e0654004 	rsb	r4, r5, r4
    16a0:	e3540001 	cmp	r4, #1
    16a4:	da000124 	ble	1b3c <balance_task+0x538>
    16a8:	e1a00009 	mov	r0, r9
    16ac:	eb0016c3 	bl	71c0 <__floatsisf>
    16b0:	e59f14cc 	ldr	r1, [pc, #1228]	; 1b84 <balance_task+0x580>
    16b4:	eb00175e 	bl	7434 <__divsf3>
    16b8:	e59f34c8 	ldr	r3, [pc, #1224]	; 1b88 <balance_task+0x584>
    16bc:	e59f14c8 	ldr	r1, [pc, #1224]	; 1b8c <balance_task+0x588>
    16c0:	e59f54c8 	ldr	r5, [pc, #1224]	; 1b90 <balance_task+0x58c>
    16c4:	e3a09000 	mov	r9, #0
    16c8:	e5860008 	str	r0, [r6, #8]
    16cc:	e7984003 	ldr	r4, [r8, r3]
    16d0:	eb0016f1 	bl	729c <__mulsf3>
    16d4:	eb0017ae 	bl	7594 <__fixsfsi>
    16d8:	e1a01004 	mov	r1, r4
    16dc:	e1a02000 	mov	r2, r0
    16e0:	e3a00006 	mov	r0, #6
    16e4:	ebfffb0f 	bl	328 <syslog>
    16e8:	e59f34a4 	ldr	r3, [pc, #1188]	; 1b94 <balance_task+0x590>
    16ec:	e3a00002 	mov	r0, #2
    16f0:	e586300c 	str	r3, [r6, #12]
    16f4:	eb000355 	bl	2450 <ev3_led_set_color>
    16f8:	ea0000b3 	b	19cc <balance_task+0x3c8>
    16fc:	e5865010 	str	r5, [r6, #16]
    1700:	e2860014 	add	r0, r6, #20
    1704:	e3e0205c 	mvn	r2, #92	; 0x5c
    1708:	e1a07002 	mov	r7, r2
    170c:	ef000001 	svc	0x00000001
    1710:	e3500000 	cmp	r0, #0
    1714:	1a0000db 	bne	1a88 <balance_task+0x484>
    1718:	e3a00001 	mov	r0, #1
    171c:	eb00100a 	bl	574c <ev3_gyro_sensor_get_rate>
    1720:	eb0016a6 	bl	71c0 <__floatsisf>
    1724:	e59f146c 	ldr	r1, [pc, #1132]	; 1b98 <balance_task+0x594>
    1728:	e1a04000 	mov	r4, r0
    172c:	eb0016da 	bl	729c <__mulsf3>
    1730:	e59f1464 	ldr	r1, [pc, #1124]	; 1b9c <balance_task+0x598>
    1734:	e1a07000 	mov	r7, r0
    1738:	e5960008 	ldr	r0, [r6, #8]
    173c:	eb0016d6 	bl	729c <__mulsf3>
    1740:	e1a01000 	mov	r1, r0
    1744:	e1a00007 	mov	r0, r7
    1748:	eb00162b 	bl	6ffc <__addsf3>
    174c:	e1a03000 	mov	r3, r0
    1750:	e5863008 	str	r3, [r6, #8]
    1754:	e1a01000 	mov	r1, r0
    1758:	e1a00004 	mov	r0, r4
    175c:	eb001625 	bl	6ff8 <__subsf3>
    1760:	e5961010 	ldr	r1, [r6, #16]
    1764:	e5860018 	str	r0, [r6, #24]
    1768:	eb0016cb 	bl	729c <__mulsf3>
    176c:	e596100c 	ldr	r1, [r6, #12]
    1770:	eb001621 	bl	6ffc <__addsf3>
    1774:	e5963000 	ldr	r3, [r6]
    1778:	e3530001 	cmp	r3, #1
    177c:	e586000c 	str	r0, [r6, #12]
    1780:	1a000006 	bne	17a0 <balance_task+0x19c>
    1784:	e3a03000 	mov	r3, #0
    1788:	e586901c 	str	r9, [r6, #28]
    178c:	e5863020 	str	r3, [r6, #32]
    1790:	e5863030 	str	r3, [r6, #48]	; 0x30
    1794:	e586302c 	str	r3, [r6, #44]	; 0x2c
    1798:	e5863028 	str	r3, [r6, #40]	; 0x28
    179c:	e5863024 	str	r3, [r6, #36]	; 0x24
    17a0:	e3a00000 	mov	r0, #0
    17a4:	eb000ad2 	bl	42f4 <ev3_motor_get_counts>
    17a8:	e1a04000 	mov	r4, r0
    17ac:	e3a00003 	mov	r0, #3
    17b0:	eb000acf 	bl	42f4 <ev3_motor_get_counts>
    17b4:	e596a020 	ldr	sl, [r6, #32]
    17b8:	e0842000 	add	r2, r4, r0
    17bc:	e06aa002 	rsb	sl, sl, r2
    17c0:	e0643000 	rsb	r3, r4, r0
    17c4:	e5863034 	str	r3, [r6, #52]	; 0x34
    17c8:	e5862020 	str	r2, [r6, #32]
    17cc:	e1a0000a 	mov	r0, sl
    17d0:	eb00167a 	bl	71c0 <__floatsisf>
    17d4:	e596101c 	ldr	r1, [r6, #28]
    17d8:	eb001607 	bl	6ffc <__addsf3>
    17dc:	e5967000 	ldr	r7, [r6]
    17e0:	e1a03fc7 	asr	r3, r7, #31
    17e4:	e1a02f23 	lsr	r2, r3, #30
    17e8:	e0873002 	add	r3, r7, r2
    17ec:	e2033003 	and	r3, r3, #3
    17f0:	e0623003 	rsb	r3, r2, r3
    17f4:	e0863103 	add	r3, r6, r3, lsl #2
    17f8:	e583a024 	str	sl, [r3, #36]	; 0x24
    17fc:	e5962024 	ldr	r2, [r6, #36]	; 0x24
    1800:	e5963028 	ldr	r3, [r6, #40]	; 0x28
    1804:	e596102c 	ldr	r1, [r6, #44]	; 0x2c
    1808:	e0823003 	add	r3, r2, r3
    180c:	e0833001 	add	r3, r3, r1
    1810:	e586001c 	str	r0, [r6, #28]
    1814:	e1a04000 	mov	r4, r0
    1818:	e5960030 	ldr	r0, [r6, #48]	; 0x30
    181c:	e0830000 	add	r0, r3, r0
    1820:	eb001666 	bl	71c0 <__floatsisf>
    1824:	e596b010 	ldr	fp, [r6, #16]
    1828:	e3a015fa 	mov	r1, #1048576000	; 0x3e800000
    182c:	eb00169a 	bl	729c <__mulsf3>
    1830:	e1a0100b 	mov	r1, fp
    1834:	eb0016fe 	bl	7434 <__divsf3>
    1838:	e3570001 	cmp	r7, #1
    183c:	e1a0a000 	mov	sl, r0
    1840:	e5860038 	str	r0, [r6, #56]	; 0x38
    1844:	0a000079 	beq	1a30 <balance_task+0x42c>
    1848:	e5960004 	ldr	r0, [r6, #4]
    184c:	eb00165b 	bl	71c0 <__floatsisf>
    1850:	e1a0100b 	mov	r1, fp
    1854:	e1a07000 	mov	r7, r0
    1858:	eb00168f 	bl	729c <__mulsf3>
    185c:	e1a01000 	mov	r1, r0
    1860:	e1a00004 	mov	r0, r4
    1864:	eb0015e3 	bl	6ff8 <__subsf3>
    1868:	e59f1330 	ldr	r1, [pc, #816]	; 1ba0 <balance_task+0x59c>
    186c:	e1a04000 	mov	r4, r0
    1870:	e586401c 	str	r4, [r6, #28]
    1874:	e5960018 	ldr	r0, [r6, #24]
    1878:	eb001687 	bl	729c <__mulsf3>
    187c:	e59f1320 	ldr	r1, [pc, #800]	; 1ba4 <balance_task+0x5a0>
    1880:	e1a0b000 	mov	fp, r0
    1884:	e596000c 	ldr	r0, [r6, #12]
    1888:	eb001683 	bl	729c <__mulsf3>
    188c:	e1a01000 	mov	r1, r0
    1890:	e1a0000b 	mov	r0, fp
    1894:	eb0015d8 	bl	6ffc <__addsf3>
    1898:	e59f1308 	ldr	r1, [pc, #776]	; 1ba8 <balance_task+0x5a4>
    189c:	e1a0b000 	mov	fp, r0
    18a0:	e1a00004 	mov	r0, r4
    18a4:	eb00167c 	bl	729c <__mulsf3>
    18a8:	e1a01000 	mov	r1, r0
    18ac:	e1a0000b 	mov	r0, fp
    18b0:	eb0015d1 	bl	6ffc <__addsf3>
    18b4:	e59f12f0 	ldr	r1, [pc, #752]	; 1bac <balance_task+0x5a8>
    18b8:	e1a04000 	mov	r4, r0
    18bc:	e1a00007 	mov	r0, r7
    18c0:	eb001675 	bl	729c <__mulsf3>
    18c4:	e1a01000 	mov	r1, r0
    18c8:	e1a00004 	mov	r0, r4
    18cc:	eb0015ca 	bl	6ffc <__addsf3>
    18d0:	e59f12d8 	ldr	r1, [pc, #728]	; 1bb0 <balance_task+0x5ac>
    18d4:	e1a04000 	mov	r4, r0
    18d8:	e1a0000a 	mov	r0, sl
    18dc:	eb00166e 	bl	729c <__mulsf3>
    18e0:	e1a01000 	mov	r1, r0
    18e4:	e1a00004 	mov	r0, r4
    18e8:	eb0015c3 	bl	6ffc <__addsf3>
    18ec:	eb001728 	bl	7594 <__fixsfsi>
    18f0:	e3e0305c 	mvn	r3, #92	; 0x5c
    18f4:	e1a04000 	mov	r4, r0
    18f8:	e28d0010 	add	r0, sp, #16
    18fc:	e1a07003 	mov	r7, r3
    1900:	ef000001 	svc	0x00000001
    1904:	e2843063 	add	r3, r4, #99	; 0x63
    1908:	e35300c6 	cmp	r3, #198	; 0xc6
    190c:	e59d3010 	ldr	r3, [sp, #16]
    1910:	9586303c 	strls	r3, [r6, #60]	; 0x3c
    1914:	9a000003 	bls	1928 <balance_task+0x324>
    1918:	e596203c 	ldr	r2, [r6, #60]	; 0x3c
    191c:	e0623003 	rsb	r3, r2, r3
    1920:	e3530ffa 	cmp	r3, #1000	; 0x3e8
    1924:	2a000049 	bcs	1a50 <balance_task+0x44c>
    1928:	e5960040 	ldr	r0, [r6, #64]	; 0x40
    192c:	eb001623 	bl	71c0 <__floatsisf>
    1930:	e1a07000 	mov	r7, r0
    1934:	e5960044 	ldr	r0, [r6, #68]	; 0x44
    1938:	eb001620 	bl	71c0 <__floatsisf>
    193c:	e5961010 	ldr	r1, [r6, #16]
    1940:	eb001655 	bl	729c <__mulsf3>
    1944:	e1a01000 	mov	r1, r0
    1948:	e1a00007 	mov	r0, r7
    194c:	eb0015aa 	bl	6ffc <__addsf3>
    1950:	eb00170f 	bl	7594 <__fixsfsi>
    1954:	e5963034 	ldr	r3, [r6, #52]	; 0x34
    1958:	e5860040 	str	r0, [r6, #64]	; 0x40
    195c:	e0630000 	rsb	r0, r3, r0
    1960:	eb001616 	bl	71c0 <__floatsisf>
    1964:	e59f1228 	ldr	r1, [pc, #552]	; 1b94 <balance_task+0x590>
    1968:	eb00164b 	bl	729c <__mulsf3>
    196c:	eb001708 	bl	7594 <__fixsfsi>
    1970:	e0841000 	add	r1, r4, r0
    1974:	e3510064 	cmp	r1, #100	; 0x64
    1978:	e0604004 	rsb	r4, r0, r4
    197c:	c3a01064 	movgt	r1, #100	; 0x64
    1980:	ca000002 	bgt	1990 <balance_task+0x38c>
    1984:	e3e03063 	mvn	r3, #99	; 0x63
    1988:	e1510003 	cmp	r1, r3
    198c:	b1a01003 	movlt	r1, r3
    1990:	e3540064 	cmp	r4, #100	; 0x64
    1994:	c3a04064 	movgt	r4, #100	; 0x64
    1998:	ca000002 	bgt	19a8 <balance_task+0x3a4>
    199c:	e3e03063 	mvn	r3, #99	; 0x63
    19a0:	e1540003 	cmp	r4, r3
    19a4:	b1a04003 	movlt	r4, r3
    19a8:	e3a00000 	mov	r0, #0
    19ac:	eb000ada 	bl	451c <ev3_motor_set_power>
    19b0:	e1a01004 	mov	r1, r4
    19b4:	e3a00003 	mov	r0, #3
    19b8:	eb000ad7 	bl	451c <ev3_motor_set_power>
    19bc:	e3a00005 	mov	r0, #5
    19c0:	e3e0300d 	mvn	r3, #13
    19c4:	e1a07003 	mov	r7, r3
    19c8:	ef000001 	svc	0x00000001
    19cc:	e5963000 	ldr	r3, [r6]
    19d0:	e2832001 	add	r2, r3, #1
    19d4:	e3530000 	cmp	r3, #0
    19d8:	e5862000 	str	r2, [r6]
    19dc:	0affff46 	beq	16fc <balance_task+0xf8>
    19e0:	e28d000c 	add	r0, sp, #12
    19e4:	e3e0305c 	mvn	r3, #92	; 0x5c
    19e8:	e1a07003 	mov	r7, r3
    19ec:	ef000001 	svc	0x00000001
    19f0:	e3500000 	cmp	r0, #0
    19f4:	1a000039 	bne	1ae0 <balance_task+0x4dc>
    19f8:	e5963014 	ldr	r3, [r6, #20]
    19fc:	e59d000c 	ldr	r0, [sp, #12]
    1a00:	e0630000 	rsb	r0, r3, r0
    1a04:	eb0015eb 	bl	71b8 <__floatunsisf>
    1a08:	e1a04000 	mov	r4, r0
    1a0c:	e5960000 	ldr	r0, [r6]
    1a10:	eb0015ea 	bl	71c0 <__floatsisf>
    1a14:	e1a01000 	mov	r1, r0
    1a18:	e1a00004 	mov	r0, r4
    1a1c:	eb001684 	bl	7434 <__divsf3>
    1a20:	e59f1164 	ldr	r1, [pc, #356]	; 1b8c <balance_task+0x588>
    1a24:	eb001682 	bl	7434 <__divsf3>
    1a28:	e5860010 	str	r0, [r6, #16]
    1a2c:	eaffff39 	b	1718 <balance_task+0x114>
    1a30:	e286003c 	add	r0, r6, #60	; 0x3c
    1a34:	e3e0305c 	mvn	r3, #92	; 0x5c
    1a38:	e1a07003 	mov	r7, r3
    1a3c:	ef000001 	svc	0x00000001
    1a40:	e596401c 	ldr	r4, [r6, #28]
    1a44:	e596b010 	ldr	fp, [r6, #16]
    1a48:	e596a038 	ldr	sl, [r6, #56]	; 0x38
    1a4c:	eaffff7d 	b	1848 <balance_task+0x244>
    1a50:	e3a00000 	mov	r0, #0
    1a54:	e1a01000 	mov	r1, r0
    1a58:	eb000aff 	bl	465c <ev3_motor_stop>
    1a5c:	e3a01000 	mov	r1, #0
    1a60:	e3a00003 	mov	r0, #3
    1a64:	eb000afc 	bl	465c <ev3_motor_stop>
    1a68:	e3a00001 	mov	r0, #1
    1a6c:	eb000277 	bl	2450 <ev3_led_set_color>
    1a70:	e59f313c 	ldr	r3, [pc, #316]	; 1bb4 <balance_task+0x5b0>
    1a74:	e3a00005 	mov	r0, #5
    1a78:	e7981003 	ldr	r1, [r8, r3]
    1a7c:	ebfffa29 	bl	328 <syslog>
    1a80:	e28dd034 	add	sp, sp, #52	; 0x34
    1a84:	e8bd8ff0 	pop	{r4, r5, r6, r7, r8, r9, sl, fp, pc}
    1a88:	e59f1128 	ldr	r1, [pc, #296]	; 1bb8 <balance_task+0x5b4>
    1a8c:	e3a0c002 	mov	ip, #2
    1a90:	e58dc010 	str	ip, [sp, #16]
    1a94:	e59f2120 	ldr	r2, [pc, #288]	; 1bbc <balance_task+0x5b8>
    1a98:	e7980001 	ldr	r0, [r8, r1]
    1a9c:	e3a0105b 	mov	r1, #91	; 0x5b
    1aa0:	e58d0018 	str	r0, [sp, #24]
    1aa4:	e58d101c 	str	r1, [sp, #28]
    1aa8:	e7982002 	ldr	r2, [r8, r2]
    1aac:	e1a00003 	mov	r0, r3
    1ab0:	e58d2020 	str	r2, [sp, #32]
    1ab4:	e28d1010 	add	r1, sp, #16
    1ab8:	e1a02003 	mov	r2, r3
    1abc:	e1a04003 	mov	r4, r3
    1ac0:	e3a0a001 	mov	sl, #1
    1ac4:	e1a0700a 	mov	r7, sl
    1ac8:	ef000001 	svc	0x00000001
    1acc:	e3500000 	cmp	r0, #0
    1ad0:	aaffff10 	bge	1718 <balance_task+0x114>
    1ad4:	e1a0700c 	mov	r7, ip
    1ad8:	ef000001 	svc	0x00000001
    1adc:	eaffff0d 	b	1718 <balance_task+0x114>
    1ae0:	e59f20d0 	ldr	r2, [pc, #208]	; 1bb8 <balance_task+0x5b4>
    1ae4:	e3a0c002 	mov	ip, #2
    1ae8:	e58dc010 	str	ip, [sp, #16]
    1aec:	e59f30c8 	ldr	r3, [pc, #200]	; 1bbc <balance_task+0x5b8>
    1af0:	e7981002 	ldr	r1, [r8, r2]
    1af4:	e3a0205f 	mov	r2, #95	; 0x5f
    1af8:	e58d1018 	str	r1, [sp, #24]
    1afc:	e58d201c 	str	r2, [sp, #28]
    1b00:	e7983003 	ldr	r3, [r8, r3]
    1b04:	e3a00000 	mov	r0, #0
    1b08:	e58d3020 	str	r3, [sp, #32]
    1b0c:	e1a02000 	mov	r2, r0
    1b10:	e1a03000 	mov	r3, r0
    1b14:	e1a04000 	mov	r4, r0
    1b18:	e28d1010 	add	r1, sp, #16
    1b1c:	e3a0a001 	mov	sl, #1
    1b20:	e1a0700a 	mov	r7, sl
    1b24:	ef000001 	svc	0x00000001
    1b28:	e1500002 	cmp	r0, r2
    1b2c:	aaffffb1 	bge	19f8 <balance_task+0x3f4>
    1b30:	e1a0700c 	mov	r7, ip
    1b34:	ef000001 	svc	0x00000001
    1b38:	eaffffae 	b	19f8 <balance_task+0x3f4>
    1b3c:	e59d3004 	ldr	r3, [sp, #4]
    1b40:	e2533001 	subs	r3, r3, #1
    1b44:	e58d3004 	str	r3, [sp, #4]
    1b48:	0a000004 	beq	1b60 <balance_task+0x55c>
    1b4c:	e59f306c 	ldr	r3, [pc, #108]	; 1bc0 <balance_task+0x5bc>
    1b50:	e3a00003 	mov	r0, #3
    1b54:	e7981003 	ldr	r1, [r8, r3]
    1b58:	ebfff9f2 	bl	328 <syslog>
    1b5c:	eafffebd 	b	1658 <balance_task+0x54>
    1b60:	e59f305c 	ldr	r3, [pc, #92]	; 1bc4 <balance_task+0x5c0>
    1b64:	e3a00003 	mov	r0, #3
    1b68:	e7981003 	ldr	r1, [r8, r3]
    1b6c:	ebfff9ed 	bl	328 <syslog>
    1b70:	e28dd034 	add	sp, sp, #52	; 0x34
    1b74:	e8bd8ff0 	pop	{r4, r5, r6, r7, r8, r9, sl, fp, pc}
    1b78:	000149f4 	strdeq	r4, [r1], -r4	; <UNPREDICTABLE>
    1b7c:	000000e4 	andeq	r0, r0, r4, ror #1
    1b80:	00000080 	andeq	r0, r0, r0, lsl #1
    1b84:	43480000 	movtmi	r0, #32768	; 0x8000
    1b88:	00000084 	andeq	r0, r0, r4, lsl #1
    1b8c:	447a0000 	ldrbtmi	r0, [sl], #-0
    1b90:	3c656042 	stclcc	0, cr6, [r5], #-264	; 0xfffffef8
    1b94:	be800000 	cdplt	0, 8, cr0, cr0, cr0, {0}
    1b98:	3a03126f 	bcc	c655c <errno+0xabdac>
    1b9c:	3f7fdf3b 	svccc	0x007fdf3b
    1ba0:	3f933333 	svccc	0x00933333
    1ba4:	40f00000 	rscsmi	r0, r0, r0
    1ba8:	3d8f5c29 	stccc	12, cr5, [pc, #164]	; 1c54 <main_task+0x3c>
    1bac:	bca3d70a 	stclt	7, cr13, [r3], #40	; 0x28
    1bb0:	3dcccccd 	stclcc	12, cr12, [ip, #820]	; 0x334
    1bb4:	00000098 	muleq	r0, r8, r0
    1bb8:	00000090 	muleq	r0, r0, r0
    1bbc:	00000094 	muleq	r0, r4, r0
    1bc0:	00000088 	andeq	r0, r0, r8, lsl #1
    1bc4:	0000008c 	andeq	r0, r0, ip, lsl #1

00001bc8 <idle_task>:
    1bc8:	e59f203c 	ldr	r2, [pc, #60]	; 1c0c <idle_task+0x44>
    1bcc:	e92d40f8 	push	{r3, r4, r5, r6, r7, lr}
    1bd0:	e59f1038 	ldr	r1, [pc, #56]	; 1c10 <idle_task+0x48>
    1bd4:	e59f3038 	ldr	r3, [pc, #56]	; 1c14 <idle_task+0x4c>
    1bd8:	e08f2002 	add	r2, pc, r2
    1bdc:	e7926001 	ldr	r6, [r2, r1]
    1be0:	e7925003 	ldr	r5, [r2, r3]
    1be4:	e3e0400d 	mvn	r4, #13
    1be8:	e1a00006 	mov	r0, r6
    1bec:	e3a01001 	mov	r1, #1
    1bf0:	e3a02022 	mov	r2, #34	; 0x22
    1bf4:	e5953048 	ldr	r3, [r5, #72]	; 0x48
    1bf8:	eb001cb9 	bl	8ee4 <fwrite>
    1bfc:	e3a00ffa 	mov	r0, #1000	; 0x3e8
    1c00:	e1a07004 	mov	r7, r4
    1c04:	ef000001 	svc	0x00000001
    1c08:	eafffff6 	b	1be8 <idle_task+0x20>
    1c0c:	0001442c 	andeq	r4, r1, ip, lsr #8
    1c10:	0000009c 	muleq	r0, ip, r0
    1c14:	000000e4 	andeq	r0, r0, r4, ror #1

00001c18 <main_task>:
    1c18:	e92d4ff0 	push	{r4, r5, r6, r7, r8, r9, sl, fp, lr}
    1c1c:	e59f645c 	ldr	r6, [pc, #1116]	; 2080 <main_task+0x468>
    1c20:	e24dd0b4 	sub	sp, sp, #180	; 0xb4
    1c24:	e3a00001 	mov	r0, #1
    1c28:	eb0005e5 	bl	33c4 <ev3_lcd_set_font>
    1c2c:	e28d1024 	add	r1, sp, #36	; 0x24
    1c30:	e28d2028 	add	r2, sp, #40	; 0x28
    1c34:	e3a00001 	mov	r0, #1
    1c38:	eb0005ef 	bl	33fc <ev3_font_get_size>
    1c3c:	e59f3440 	ldr	r3, [pc, #1088]	; 2084 <main_task+0x46c>
    1c40:	e08f6006 	add	r6, pc, r6
    1c44:	e3a01000 	mov	r1, #0
    1c48:	e7960003 	ldr	r0, [r6, r3]
    1c4c:	e1a02001 	mov	r2, r1
    1c50:	eb000606 	bl	3470 <ev3_lcd_draw_string>
    1c54:	e59f342c 	ldr	r3, [pc, #1068]	; 2088 <main_task+0x470>
    1c58:	e28d404c 	add	r4, sp, #76	; 0x4c
    1c5c:	e7961003 	ldr	r1, [r6, r3]
    1c60:	e1a00004 	mov	r0, r4
    1c64:	e3a02032 	mov	r2, #50	; 0x32
    1c68:	eb001ef4 	bl	9840 <sprintf>
    1c6c:	e59d2028 	ldr	r2, [sp, #40]	; 0x28
    1c70:	e1a00004 	mov	r0, r4
    1c74:	e3a01000 	mov	r1, #0
    1c78:	eb0005fc 	bl	3470 <ev3_lcd_draw_string>
    1c7c:	e59f3408 	ldr	r3, [pc, #1032]	; 208c <main_task+0x474>
    1c80:	e1a00004 	mov	r0, r4
    1c84:	e7961003 	ldr	r1, [r6, r3]
    1c88:	e3a02041 	mov	r2, #65	; 0x41
    1c8c:	eb001eeb 	bl	9840 <sprintf>
    1c90:	e59d2028 	ldr	r2, [sp, #40]	; 0x28
    1c94:	e1a00004 	mov	r0, r4
    1c98:	e1a02082 	lsl	r2, r2, #1
    1c9c:	e3a01000 	mov	r1, #0
    1ca0:	eb0005f2 	bl	3470 <ev3_lcd_draw_string>
    1ca4:	e59f33e4 	ldr	r3, [pc, #996]	; 2090 <main_task+0x478>
    1ca8:	e1a00004 	mov	r0, r4
    1cac:	e7961003 	ldr	r1, [r6, r3]
    1cb0:	e3a02044 	mov	r2, #68	; 0x44
    1cb4:	eb001ee1 	bl	9840 <sprintf>
    1cb8:	e59d2028 	ldr	r2, [sp, #40]	; 0x28
    1cbc:	e1a00004 	mov	r0, r4
    1cc0:	e0822082 	add	r2, r2, r2, lsl #1
    1cc4:	e3a01000 	mov	r1, #0
    1cc8:	eb0005e8 	bl	3470 <ev3_lcd_draw_string>
    1ccc:	e59f33c0 	ldr	r3, [pc, #960]	; 2094 <main_task+0x47c>
    1cd0:	e3a00005 	mov	r0, #5
    1cd4:	e7964003 	ldr	r4, [r6, r3]
    1cd8:	e1a02000 	mov	r2, r0
    1cdc:	e1a01004 	mov	r1, r4
    1ce0:	eb000207 	bl	2504 <ev3_button_set_on_clicked>
    1ce4:	e3a00004 	mov	r0, #4
    1ce8:	e1a01004 	mov	r1, r4
    1cec:	e1a02000 	mov	r2, r0
    1cf0:	eb000203 	bl	2504 <ev3_button_set_on_clicked>
    1cf4:	e3a00000 	mov	r0, #0
    1cf8:	e1a02000 	mov	r2, r0
    1cfc:	e1a01004 	mov	r1, r4
    1d00:	eb0001ff 	bl	2504 <ev3_button_set_on_clicked>
    1d04:	e3a01002 	mov	r1, #2
    1d08:	e3a00001 	mov	r0, #1
    1d0c:	eb000d36 	bl	51ec <ev3_sensor_config>
    1d10:	e3a01002 	mov	r1, #2
    1d14:	e3a00000 	mov	r0, #0
    1d18:	eb000921 	bl	41a4 <ev3_motor_config>
    1d1c:	e3a01002 	mov	r1, #2
    1d20:	e3a00003 	mov	r0, #3
    1d24:	eb00091e 	bl	41a4 <ev3_motor_config>
    1d28:	e59f3368 	ldr	r3, [pc, #872]	; 2098 <main_task+0x480>
    1d2c:	e3e02004 	mvn	r2, #4
    1d30:	e7963003 	ldr	r3, [r6, r3]
    1d34:	e5930000 	ldr	r0, [r3]
    1d38:	e1a07002 	mov	r7, r2
    1d3c:	ef000001 	svc	0x00000001
    1d40:	e3a00002 	mov	r0, #2
    1d44:	eb00032b 	bl	29f8 <ev3_serial_open_file>
    1d48:	e59f334c 	ldr	r3, [pc, #844]	; 209c <main_task+0x484>
    1d4c:	e7965003 	ldr	r5, [r6, r3]
    1d50:	e3500000 	cmp	r0, #0
    1d54:	e1a02000 	mov	r2, r0
    1d58:	e5850048 	str	r0, [r5, #72]	; 0x48
    1d5c:	0a0000b2 	beq	202c <main_task+0x414>
    1d60:	e59f3338 	ldr	r3, [pc, #824]	; 20a0 <main_task+0x488>
    1d64:	e3e02004 	mvn	r2, #4
    1d68:	e7964003 	ldr	r4, [r6, r3]
    1d6c:	e5940000 	ldr	r0, [r4]
    1d70:	e1a07002 	mov	r7, r2
    1d74:	ef000001 	svc	0x00000001
    1d78:	e59f7324 	ldr	r7, [pc, #804]	; 20a4 <main_task+0x48c>
    1d7c:	e59fa324 	ldr	sl, [pc, #804]	; 20a8 <main_task+0x490>
    1d80:	e7967007 	ldr	r7, [r6, r7]
    1d84:	e59f9320 	ldr	r9, [pc, #800]	; 20ac <main_task+0x494>
    1d88:	e59f8320 	ldr	r8, [pc, #800]	; 20b0 <main_task+0x498>
    1d8c:	e59fb320 	ldr	fp, [pc, #800]	; 20b4 <main_task+0x49c>
    1d90:	e59fe320 	ldr	lr, [pc, #800]	; 20b8 <main_task+0x4a0>
    1d94:	e796a00a 	ldr	sl, [r6, sl]
    1d98:	e7969009 	ldr	r9, [r6, r9]
    1d9c:	e7968008 	ldr	r8, [r6, r8]
    1da0:	e796b00b 	ldr	fp, [r6, fp]
    1da4:	e59fc310 	ldr	ip, [pc, #784]	; 20bc <main_task+0x4a4>
    1da8:	e58d701c 	str	r7, [sp, #28]
    1dac:	e796e00e 	ldr	lr, [r6, lr]
    1db0:	e59f0308 	ldr	r0, [pc, #776]	; 20c0 <main_task+0x4a8>
    1db4:	e58de000 	str	lr, [sp]
    1db8:	e796c00c 	ldr	ip, [r6, ip]
    1dbc:	e59f1300 	ldr	r1, [pc, #768]	; 20c4 <main_task+0x4ac>
    1dc0:	e58dc004 	str	ip, [sp, #4]
    1dc4:	e7960000 	ldr	r0, [r6, r0]
    1dc8:	e59f22f8 	ldr	r2, [pc, #760]	; 20c8 <main_task+0x4b0>
    1dcc:	e58d0008 	str	r0, [sp, #8]
    1dd0:	e7961001 	ldr	r1, [r6, r1]
    1dd4:	e59f32f0 	ldr	r3, [pc, #752]	; 20cc <main_task+0x4b4>
    1dd8:	e58d100c 	str	r1, [sp, #12]
    1ddc:	e7962002 	ldr	r2, [r6, r2]
    1de0:	e58d2010 	str	r2, [sp, #16]
    1de4:	e7963003 	ldr	r3, [r6, r3]
    1de8:	e58d3014 	str	r3, [sp, #20]
    1dec:	e59f32dc 	ldr	r3, [pc, #732]	; 20d0 <main_task+0x4b8>
    1df0:	e7963003 	ldr	r3, [r6, r3]
    1df4:	e3e06018 	mvn	r6, #24
    1df8:	e58d3018 	str	r3, [sp, #24]
    1dfc:	eb0003be 	bl	2cfc <ev3_bluetooth_is_connected>
    1e00:	e3500000 	cmp	r0, #0
    1e04:	1a000006 	bne	1e24 <main_task+0x20c>
    1e08:	e3a00064 	mov	r0, #100	; 0x64
    1e0c:	e3e0300d 	mvn	r3, #13
    1e10:	e1a07003 	mov	r7, r3
    1e14:	ef000001 	svc	0x00000001
    1e18:	eb0003b7 	bl	2cfc <ev3_bluetooth_is_connected>
    1e1c:	e3500000 	cmp	r0, #0
    1e20:	0afffff8 	beq	1e08 <main_task+0x1f0>
    1e24:	e5950048 	ldr	r0, [r5, #72]	; 0x48
    1e28:	eb001818 	bl	7e90 <fgetc>
    1e2c:	e1a02000 	mov	r2, r0
    1e30:	e5940000 	ldr	r0, [r4]
    1e34:	e1a07006 	mov	r7, r6
    1e38:	ef000001 	svc	0x00000001
    1e3c:	e20220ff 	and	r2, r2, #255	; 0xff
    1e40:	e2423061 	sub	r3, r2, #97	; 0x61
    1e44:	e3530016 	cmp	r3, #22
    1e48:	908ff103 	addls	pc, pc, r3, lsl #2
    1e4c:	ea00006c 	b	2004 <main_task+0x3ec>
    1e50:	ea000065 	b	1fec <main_task+0x3d4>
    1e54:	ea00006a 	b	2004 <main_task+0x3ec>
    1e58:	ea000069 	b	2004 <main_task+0x3ec>
    1e5c:	ea000059 	b	1fc8 <main_task+0x3b0>
    1e60:	ea000067 	b	2004 <main_task+0x3ec>
    1e64:	ea000066 	b	2004 <main_task+0x3ec>
    1e68:	ea000065 	b	2004 <main_task+0x3ec>
    1e6c:	ea000027 	b	1f10 <main_task+0x2f8>
    1e70:	ea00001c 	b	1ee8 <main_task+0x2d0>
    1e74:	ea000062 	b	2004 <main_task+0x3ec>
    1e78:	ea000061 	b	2004 <main_task+0x3ec>
    1e7c:	ea000060 	b	2004 <main_task+0x3ec>
    1e80:	ea00005f 	b	2004 <main_task+0x3ec>
    1e84:	ea00005e 	b	2004 <main_task+0x3ec>
    1e88:	ea00005d 	b	2004 <main_task+0x3ec>
    1e8c:	ea00005c 	b	2004 <main_task+0x3ec>
    1e90:	ea00005b 	b	2004 <main_task+0x3ec>
    1e94:	ea00005a 	b	2004 <main_task+0x3ec>
    1e98:	ea00000c 	b	1ed0 <main_task+0x2b8>
    1e9c:	ea000058 	b	2004 <main_task+0x3ec>
    1ea0:	ea000057 	b	2004 <main_task+0x3ec>
    1ea4:	ea000056 	b	2004 <main_task+0x3ec>
    1ea8:	eaffffff 	b	1eac <main_task+0x294>
    1eac:	e5952004 	ldr	r2, [r5, #4]
    1eb0:	e3520000 	cmp	r2, #0
    1eb4:	a282200a 	addge	r2, r2, #10
    1eb8:	a5852004 	strge	r2, [r5, #4]
    1ebc:	ba000006 	blt	1edc <main_task+0x2c4>
    1ec0:	e5950048 	ldr	r0, [r5, #72]	; 0x48
    1ec4:	e1a0100a 	mov	r1, sl
    1ec8:	eb00195d 	bl	8444 <fprintf>
    1ecc:	eaffffca 	b	1dfc <main_task+0x1e4>
    1ed0:	e5952004 	ldr	r2, [r5, #4]
    1ed4:	e3520000 	cmp	r2, #0
    1ed8:	da00004d 	ble	2014 <main_task+0x3fc>
    1edc:	e3a02000 	mov	r2, #0
    1ee0:	e5852004 	str	r2, [r5, #4]
    1ee4:	eafffff5 	b	1ec0 <main_task+0x2a8>
    1ee8:	e5953048 	ldr	r3, [r5, #72]	; 0x48
    1eec:	e59d0014 	ldr	r0, [sp, #20]
    1ef0:	e3a01001 	mov	r1, #1
    1ef4:	e3a02013 	mov	r2, #19
    1ef8:	eb001bf9 	bl	8ee4 <fwrite>
    1efc:	e5940000 	ldr	r0, [r4]
    1f00:	e3e03019 	mvn	r3, #25
    1f04:	e1a07003 	mov	r7, r3
    1f08:	ef000001 	svc	0x00000001
    1f0c:	eaffffba 	b	1dfc <main_task+0x1e4>
    1f10:	e5953048 	ldr	r3, [r5, #72]	; 0x48
    1f14:	e1a00008 	mov	r0, r8
    1f18:	e3a01001 	mov	r1, #1
    1f1c:	e3a0201b 	mov	r2, #27
    1f20:	eb001bef 	bl	8ee4 <fwrite>
    1f24:	e5953048 	ldr	r3, [r5, #72]	; 0x48
    1f28:	e1a0000b 	mov	r0, fp
    1f2c:	e3a01001 	mov	r1, #1
    1f30:	e3a02007 	mov	r2, #7
    1f34:	eb001bea 	bl	8ee4 <fwrite>
    1f38:	e5953048 	ldr	r3, [r5, #72]	; 0x48
    1f3c:	e59d001c 	ldr	r0, [sp, #28]
    1f40:	e3a01001 	mov	r1, #1
    1f44:	e3a02016 	mov	r2, #22
    1f48:	eb001be5 	bl	8ee4 <fwrite>
    1f4c:	e5953048 	ldr	r3, [r5, #72]	; 0x48
    1f50:	e59d0000 	ldr	r0, [sp]
    1f54:	e3a01001 	mov	r1, #1
    1f58:	e3a02018 	mov	r2, #24
    1f5c:	eb001be0 	bl	8ee4 <fwrite>
    1f60:	e5953048 	ldr	r3, [r5, #72]	; 0x48
    1f64:	e59d0004 	ldr	r0, [sp, #4]
    1f68:	e3a01001 	mov	r1, #1
    1f6c:	e3a02017 	mov	r2, #23
    1f70:	eb001bdb 	bl	8ee4 <fwrite>
    1f74:	e5953048 	ldr	r3, [r5, #72]	; 0x48
    1f78:	e59d0008 	ldr	r0, [sp, #8]
    1f7c:	e3a01001 	mov	r1, #1
    1f80:	e3a02018 	mov	r2, #24
    1f84:	eb001bd6 	bl	8ee4 <fwrite>
    1f88:	e5953048 	ldr	r3, [r5, #72]	; 0x48
    1f8c:	e59d000c 	ldr	r0, [sp, #12]
    1f90:	e3a01001 	mov	r1, #1
    1f94:	e3a02018 	mov	r2, #24
    1f98:	eb001bd1 	bl	8ee4 <fwrite>
    1f9c:	e5953048 	ldr	r3, [r5, #72]	; 0x48
    1fa0:	e59d0010 	ldr	r0, [sp, #16]
    1fa4:	e3a01001 	mov	r1, #1
    1fa8:	e3a0201b 	mov	r2, #27
    1fac:	eb001bcc 	bl	8ee4 <fwrite>
    1fb0:	e1a00008 	mov	r0, r8
    1fb4:	e3a01001 	mov	r1, #1
    1fb8:	e3a0201b 	mov	r2, #27
    1fbc:	e5953048 	ldr	r3, [r5, #72]	; 0x48
    1fc0:	eb001bc7 	bl	8ee4 <fwrite>
    1fc4:	eaffff8c 	b	1dfc <main_task+0x1e4>
    1fc8:	e5952044 	ldr	r2, [r5, #68]	; 0x44
    1fcc:	e3520000 	cmp	r2, #0
    1fd0:	da000012 	ble	2020 <main_task+0x408>
    1fd4:	e3a02000 	mov	r2, #0
    1fd8:	e5852044 	str	r2, [r5, #68]	; 0x44
    1fdc:	e5950048 	ldr	r0, [r5, #72]	; 0x48
    1fe0:	e1a01009 	mov	r1, r9
    1fe4:	eb001916 	bl	8444 <fprintf>
    1fe8:	eaffff83 	b	1dfc <main_task+0x1e4>
    1fec:	e5952044 	ldr	r2, [r5, #68]	; 0x44
    1ff0:	e3520000 	cmp	r2, #0
    1ff4:	a282200a 	addge	r2, r2, #10
    1ff8:	a5852044 	strge	r2, [r5, #68]	; 0x44
    1ffc:	aafffff6 	bge	1fdc <main_task+0x3c4>
    2000:	eafffff3 	b	1fd4 <main_task+0x3bc>
    2004:	e5950048 	ldr	r0, [r5, #72]	; 0x48
    2008:	e59d1018 	ldr	r1, [sp, #24]
    200c:	eb00190c 	bl	8444 <fprintf>
    2010:	eaffff79 	b	1dfc <main_task+0x1e4>
    2014:	e242200a 	sub	r2, r2, #10
    2018:	e5852004 	str	r2, [r5, #4]
    201c:	eaffffa7 	b	1ec0 <main_task+0x2a8>
    2020:	e242200a 	sub	r2, r2, #10
    2024:	e5852044 	str	r2, [r5, #68]	; 0x44
    2028:	eaffffeb 	b	1fdc <main_task+0x3c4>
    202c:	e59f30a0 	ldr	r3, [pc, #160]	; 20d4 <main_task+0x4bc>
    2030:	e3a0c002 	mov	ip, #2
    2034:	e58dc02c 	str	ip, [sp, #44]	; 0x2c
    2038:	e59f1098 	ldr	r1, [pc, #152]	; 20d8 <main_task+0x4c0>
    203c:	e796e003 	ldr	lr, [r6, r3]
    2040:	e59f3094 	ldr	r3, [pc, #148]	; 20dc <main_task+0x4c4>
    2044:	e58d1038 	str	r1, [sp, #56]	; 0x38
    2048:	e58de034 	str	lr, [sp, #52]	; 0x34
    204c:	e7963003 	ldr	r3, [r6, r3]
    2050:	e28d102c 	add	r1, sp, #44	; 0x2c
    2054:	e58d303c 	str	r3, [sp, #60]	; 0x3c
    2058:	e1a04000 	mov	r4, r0
    205c:	e1a03000 	mov	r3, r0
    2060:	e3a08001 	mov	r8, #1
    2064:	e1a07008 	mov	r7, r8
    2068:	ef000001 	svc	0x00000001
    206c:	e3500000 	cmp	r0, #0
    2070:	aaffff3a 	bge	1d60 <main_task+0x148>
    2074:	e1a0700c 	mov	r7, ip
    2078:	ef000001 	svc	0x00000001
    207c:	eaffff37 	b	1d60 <main_task+0x148>
    2080:	000143c4 	andeq	r4, r1, r4, asr #7
    2084:	000000a0 	andeq	r0, r0, r0, lsr #1
    2088:	000000a4 	andeq	r0, r0, r4, lsr #1
    208c:	000000a8 	andeq	r0, r0, r8, lsr #1
    2090:	000000ac 	andeq	r0, r0, ip, lsr #1
    2094:	00000074 	andeq	r0, r0, r4, ror r0
    2098:	000001ec 	andeq	r0, r0, ip, ror #3
    209c:	000000e4 	andeq	r0, r0, r4, ror #1
    20a0:	000001f0 	strdeq	r0, [r0], -r0	; <UNPREDICTABLE>
    20a4:	000000c4 	andeq	r0, r0, r4, asr #1
    20a8:	000000b4 	strheq	r0, [r0], -r4
    20ac:	000000b8 	strheq	r0, [r0], -r8
    20b0:	000000bc 	strheq	r0, [r0], -ip
    20b4:	000000c0 	andeq	r0, r0, r0, asr #1
    20b8:	000000c8 	andeq	r0, r0, r8, asr #1
    20bc:	000000cc 	andeq	r0, r0, ip, asr #1
    20c0:	000000d0 	ldrdeq	r0, [r0], -r0	; <UNPREDICTABLE>
    20c4:	000000d4 	ldrdeq	r0, [r0], -r4
    20c8:	000000d8 	ldrdeq	r0, [r0], -r8
    20cc:	000000dc 	ldrdeq	r0, [r0], -ip
    20d0:	000000e0 	andeq	r0, r0, r0, ror #1
    20d4:	00000090 	muleq	r0, r0, r0
    20d8:	0000012b 	andeq	r0, r0, fp, lsr #2
    20dc:	000000b0 	strheq	r0, [r0], -r0	; <UNPREDICTABLE>

000020e0 <_app_init_task>:
    20e0:	e92d43f0 	push	{r4, r5, r6, r7, r8, r9, lr}
    20e4:	e59f5210 	ldr	r5, [pc, #528]	; 22fc <_app_init_task+0x21c>
    20e8:	e3a01000 	mov	r1, #0
    20ec:	e08f5005 	add	r5, pc, r5
    20f0:	e24dd024 	sub	sp, sp, #36	; 0x24
    20f4:	e1a02001 	mov	r2, r1
    20f8:	e1a03001 	mov	r3, r1
    20fc:	e1a04001 	mov	r4, r1
    2100:	e3a00002 	mov	r0, #2
    2104:	e3a0c01a 	mov	ip, #26
    2108:	e1a0700c 	mov	r7, ip
    210c:	ef000001 	svc	0x00000001
    2110:	e3700021 	cmn	r0, #33	; 0x21
    2114:	0a000021 	beq	21a0 <_app_init_task+0xc0>
    2118:	e59f31e0 	ldr	r3, [pc, #480]	; 2300 <_app_init_task+0x220>
    211c:	e3a01000 	mov	r1, #0
    2120:	e795c003 	ldr	ip, [r5, r3]
    2124:	e1a02001 	mov	r2, r1
    2128:	e1a0000c 	mov	r0, ip
    212c:	e1a03001 	mov	r3, r1
    2130:	e1a04001 	mov	r4, r1
    2134:	e3a06018 	mov	r6, #24
    2138:	e1a07006 	mov	r7, r6
    213c:	ef000001 	svc	0x00000001
    2140:	e3700021 	cmn	r0, #33	; 0x21
    2144:	0a000029 	beq	21f0 <_app_init_task+0x110>
    2148:	e3500000 	cmp	r0, #0
    214c:	1a000052 	bne	229c <_app_init_task+0x1bc>
    2150:	e59c0014 	ldr	r0, [ip, #20]
    2154:	e3500000 	cmp	r0, #0
    2158:	0a000051 	beq	22a4 <_app_init_task+0x1c4>
    215c:	eb0006f4 	bl	3d34 <_initialize_ev3api_lcd>
    2160:	eb00076e 	bl	3f20 <_initialize_ev3api_motor>
    2164:	eb000a9d 	bl	4be0 <_initialize_ev3api_newlib>
    2168:	eb000b7e 	bl	4f68 <_initialize_ev3api_sensor>
    216c:	e59f2190 	ldr	r2, [pc, #400]	; 2304 <_app_init_task+0x224>
    2170:	e59f3190 	ldr	r3, [pc, #400]	; 2308 <_app_init_task+0x228>
    2174:	e7954002 	ldr	r4, [r5, r2]
    2178:	e7955003 	ldr	r5, [r5, r3]
    217c:	e1540005 	cmp	r4, r5
    2180:	0a000003 	beq	2194 <_app_init_task+0xb4>
    2184:	e4943004 	ldr	r3, [r4], #4
    2188:	e12fff33 	blx	r3
    218c:	e1540005 	cmp	r4, r5
    2190:	1afffffb 	bne	2184 <_app_init_task+0xa4>
    2194:	eb000062 	bl	2324 <_initialize_ev3api_cyc>
    2198:	e28dd024 	add	sp, sp, #36	; 0x24
    219c:	e8bd83f0 	pop	{r4, r5, r6, r7, r8, r9, pc}
    21a0:	e59fc164 	ldr	ip, [pc, #356]	; 230c <_app_init_task+0x22c>
    21a4:	e3a06002 	mov	r6, #2
    21a8:	e58d6000 	str	r6, [sp]
    21ac:	e59f015c 	ldr	r0, [pc, #348]	; 2310 <_app_init_task+0x230>
    21b0:	e795e00c 	ldr	lr, [r5, ip]
    21b4:	e3a0c0ca 	mov	ip, #202	; 0xca
    21b8:	e58de008 	str	lr, [sp, #8]
    21bc:	e58dc00c 	str	ip, [sp, #12]
    21c0:	e795c000 	ldr	ip, [r5, r0]
    21c4:	e1a00001 	mov	r0, r1
    21c8:	e58dc010 	str	ip, [sp, #16]
    21cc:	e1a0100d 	mov	r1, sp
    21d0:	e3a0c001 	mov	ip, #1
    21d4:	e1a0700c 	mov	r7, ip
    21d8:	ef000001 	svc	0x00000001
    21dc:	e1500002 	cmp	r0, r2
    21e0:	aaffffcc 	bge	2118 <_app_init_task+0x38>
    21e4:	e1a07006 	mov	r7, r6
    21e8:	ef000001 	svc	0x00000001
    21ec:	eaffffc9 	b	2118 <_app_init_task+0x38>
    21f0:	e59fe114 	ldr	lr, [pc, #276]	; 230c <_app_init_task+0x22c>
    21f4:	e3a08002 	mov	r8, #2
    21f8:	e58d8000 	str	r8, [sp]
    21fc:	e59f010c 	ldr	r0, [pc, #268]	; 2310 <_app_init_task+0x230>
    2200:	e795600e 	ldr	r6, [r5, lr]
    2204:	e3a0e0be 	mov	lr, #190	; 0xbe
    2208:	e58d6008 	str	r6, [sp, #8]
    220c:	e58de00c 	str	lr, [sp, #12]
    2210:	e795e000 	ldr	lr, [r5, r0]
    2214:	e1a0600d 	mov	r6, sp
    2218:	e1a00001 	mov	r0, r1
    221c:	e58de010 	str	lr, [sp, #16]
    2220:	e1a0100d 	mov	r1, sp
    2224:	e3a09001 	mov	r9, #1
    2228:	e1a07009 	mov	r7, r9
    222c:	ef000001 	svc	0x00000001
    2230:	e1500002 	cmp	r0, r2
    2234:	aa000001 	bge	2240 <_app_init_task+0x160>
    2238:	e1a07008 	mov	r7, r8
    223c:	ef000001 	svc	0x00000001
    2240:	e59f20cc 	ldr	r2, [pc, #204]	; 2314 <_app_init_task+0x234>
    2244:	e3a08002 	mov	r8, #2
    2248:	e58d8000 	str	r8, [sp]
    224c:	e59f30c4 	ldr	r3, [pc, #196]	; 2318 <_app_init_task+0x238>
    2250:	e7951002 	ldr	r1, [r5, r2]
    2254:	e3a0201e 	mov	r2, #30
    2258:	e58d1008 	str	r1, [sp, #8]
    225c:	e58d200c 	str	r2, [sp, #12]
    2260:	e7953003 	ldr	r3, [r5, r3]
    2264:	e3a00000 	mov	r0, #0
    2268:	e1a01006 	mov	r1, r6
    226c:	e58d3010 	str	r3, [sp, #16]
    2270:	e1a02000 	mov	r2, r0
    2274:	e1a03000 	mov	r3, r0
    2278:	e1a04000 	mov	r4, r0
    227c:	e3a06001 	mov	r6, #1
    2280:	e1a07006 	mov	r7, r6
    2284:	ef000001 	svc	0x00000001
    2288:	e1500002 	cmp	r0, r2
    228c:	aaffffaf 	bge	2150 <_app_init_task+0x70>
    2290:	e1a07008 	mov	r7, r8
    2294:	ef000001 	svc	0x00000001
    2298:	eaffffac 	b	2150 <_app_init_task+0x70>
    229c:	e1a0600d 	mov	r6, sp
    22a0:	eaffffe6 	b	2240 <_app_init_task+0x160>
    22a4:	e59f2068 	ldr	r2, [pc, #104]	; 2314 <_app_init_task+0x234>
    22a8:	e3a0c002 	mov	ip, #2
    22ac:	e58dc000 	str	ip, [sp]
    22b0:	e59f3064 	ldr	r3, [pc, #100]	; 231c <_app_init_task+0x23c>
    22b4:	e7951002 	ldr	r1, [r5, r2]
    22b8:	e3a0201f 	mov	r2, #31
    22bc:	e58d1008 	str	r1, [sp, #8]
    22c0:	e58d200c 	str	r2, [sp, #12]
    22c4:	e7953003 	ldr	r3, [r5, r3]
    22c8:	e1a0100d 	mov	r1, sp
    22cc:	e58d3010 	str	r3, [sp, #16]
    22d0:	e1a02000 	mov	r2, r0
    22d4:	e1a03000 	mov	r3, r0
    22d8:	e1a04000 	mov	r4, r0
    22dc:	e3a06001 	mov	r6, #1
    22e0:	e1a07006 	mov	r7, r6
    22e4:	ef000001 	svc	0x00000001
    22e8:	e3500000 	cmp	r0, #0
    22ec:	aaffff9a 	bge	215c <_app_init_task+0x7c>
    22f0:	e1a0700c 	mov	r7, ip
    22f4:	ef000001 	svc	0x00000001
    22f8:	eaffff97 	b	215c <_app_init_task+0x7c>
    22fc:	00013f18 	andeq	r3, r1, r8, lsl pc
    2300:	000001f8 	strdeq	r0, [r0], -r8
    2304:	000001fc 	strdeq	r0, [r0], -ip
    2308:	000001f4 	strdeq	r0, [r0], -r4
    230c:	000000e8 	andeq	r0, r0, r8, ror #1
    2310:	000000ec 	andeq	r0, r0, ip, ror #1
    2314:	000000f0 	strdeq	r0, [r0], -r0	; <UNPREDICTABLE>
    2318:	000000f4 	strdeq	r0, [r0], -r4
    231c:	000000f8 	strdeq	r0, [r0], -r8

00002320 <_fini>:
    2320:	e12fff1e 	bx	lr

00002324 <_initialize_ev3api_cyc>:
    2324:	e12fff1e 	bx	lr

00002328 <ev3_battery_current_mA>:
    2328:	e59f204c 	ldr	r2, [pc, #76]	; 237c <ev3_battery_current_mA+0x54>
    232c:	e92d4008 	push	{r3, lr}
    2330:	e59f3048 	ldr	r3, [pc, #72]	; 2380 <ev3_battery_current_mA+0x58>
    2334:	e08f2002 	add	r2, pc, r2
    2338:	e7923003 	ldr	r3, [r2, r3]
    233c:	e59f0040 	ldr	r0, [pc, #64]	; 2384 <ev3_battery_current_mA+0x5c>
    2340:	e593302c 	ldr	r3, [r3, #44]	; 0x2c
    2344:	e1d320f0 	ldrsh	r2, [r3]
    2348:	e0623282 	rsb	r3, r2, r2, lsl #5
    234c:	e0822103 	add	r2, r2, r3, lsl #2
    2350:	e0822102 	add	r2, r2, r2, lsl #2
    2354:	e1a03182 	lsl	r3, r2, #3
    2358:	e0c21390 	smull	r1, r2, r0, r3
    235c:	e1a00fc3 	asr	r0, r3, #31
    2360:	e0823003 	add	r3, r2, r3
    2364:	e06005c3 	rsb	r0, r0, r3, asr #11
    2368:	eb001394 	bl	71c0 <__floatsisf>
    236c:	e59f1014 	ldr	r1, [pc, #20]	; 2388 <ev3_battery_current_mA+0x60>
    2370:	eb00142f 	bl	7434 <__divsf3>
    2374:	eb001486 	bl	7594 <__fixsfsi>
    2378:	e8bd8008 	pop	{r3, pc}
    237c:	00013cd0 	ldrdeq	r3, [r1], -r0
    2380:	000001f8 	strdeq	r0, [r0], -r8
    2384:	80080081 	andhi	r0, r8, r1, lsl #1
    2388:	401ae148 	andsmi	lr, sl, r8, asr #2

0000238c <ev3_battery_voltage_mV>:
    238c:	e59f20a8 	ldr	r2, [pc, #168]	; 243c <ev3_battery_voltage_mV+0xb0>
    2390:	e59f30a8 	ldr	r3, [pc, #168]	; 2440 <ev3_battery_voltage_mV+0xb4>
    2394:	e08f2002 	add	r2, pc, r2
    2398:	e92d4070 	push	{r4, r5, r6, lr}
    239c:	e7923003 	ldr	r3, [r2, r3]
    23a0:	e59f509c 	ldr	r5, [pc, #156]	; 2444 <ev3_battery_voltage_mV+0xb8>
    23a4:	e5932030 	ldr	r2, [r3, #48]	; 0x30
    23a8:	e593302c 	ldr	r3, [r3, #44]	; 0x2c
    23ac:	e1d220f0 	ldrsh	r2, [r2]
    23b0:	e1d340b0 	ldrh	r4, [r3]
    23b4:	e0620282 	rsb	r0, r2, r2, lsl #5
    23b8:	e0822100 	add	r2, r2, r0, lsl #2
    23bc:	e0822102 	add	r2, r2, r2, lsl #2
    23c0:	e1a02182 	lsl	r2, r2, #3
    23c4:	e0c31295 	smull	r1, r3, r5, r2
    23c8:	e1a00fc2 	asr	r0, r2, #31
    23cc:	e0832002 	add	r2, r3, r2
    23d0:	e06005c2 	rsb	r0, r0, r2, asr #11
    23d4:	eb001379 	bl	71c0 <__floatsisf>
    23d8:	e1a01000 	mov	r1, r0
    23dc:	eb001306 	bl	6ffc <__addsf3>
    23e0:	e1a02804 	lsl	r2, r4, #16
    23e4:	e1a02842 	asr	r2, r2, #16
    23e8:	e0623282 	rsb	r3, r2, r2, lsl #5
    23ec:	e0822103 	add	r2, r2, r3, lsl #2
    23f0:	e0822102 	add	r2, r2, r2, lsl #2
    23f4:	e1a03182 	lsl	r3, r2, #3
    23f8:	e0c52593 	smull	r2, r5, r3, r5
    23fc:	e1a06000 	mov	r6, r0
    2400:	e1a00fc3 	asr	r0, r3, #31
    2404:	e0853003 	add	r3, r5, r3
    2408:	e06005c3 	rsb	r0, r0, r3, asr #11
    240c:	eb00136b 	bl	71c0 <__floatsisf>
    2410:	e59f1030 	ldr	r1, [pc, #48]	; 2448 <ev3_battery_voltage_mV+0xbc>
    2414:	eb001406 	bl	7434 <__divsf3>
    2418:	eb00145d 	bl	7594 <__fixsfsi>
    241c:	eb001367 	bl	71c0 <__floatsisf>
    2420:	e1a01000 	mov	r1, r0
    2424:	e1a00006 	mov	r0, r6
    2428:	eb0012f3 	bl	6ffc <__addsf3>
    242c:	e59f1018 	ldr	r1, [pc, #24]	; 244c <ev3_battery_voltage_mV+0xc0>
    2430:	eb0012f1 	bl	6ffc <__addsf3>
    2434:	eb001456 	bl	7594 <__fixsfsi>
    2438:	e8bd8070 	pop	{r4, r5, r6, pc}
    243c:	00013c70 	andeq	r3, r1, r0, ror ip
    2440:	000001f8 	strdeq	r0, [r0], -r8
    2444:	80080081 	andhi	r0, r8, r1, lsl #1
    2448:	41b00000 	movsmi	r0, r0
    244c:	42480000 	submi	r0, r8, #0

00002450 <ev3_led_set_color>:
    2450:	e92d40f0 	push	{r4, r5, r6, r7, lr}
    2454:	e59f509c 	ldr	r5, [pc, #156]	; 24f8 <ev3_led_set_color+0xa8>
    2458:	e3100001 	tst	r0, #1
    245c:	13a01002 	movne	r1, #2
    2460:	e3a02000 	mov	r2, #0
    2464:	03a01000 	moveq	r1, #0
    2468:	e3100002 	tst	r0, #2
    246c:	e08f5005 	add	r5, pc, r5
    2470:	e24dd024 	sub	sp, sp, #36	; 0x24
    2474:	13811004 	orrne	r1, r1, #4
    2478:	e1a03002 	mov	r3, r2
    247c:	e1a04002 	mov	r4, r2
    2480:	e3a00001 	mov	r0, #1
    2484:	e3a0c01a 	mov	ip, #26
    2488:	e1a0700c 	mov	r7, ip
    248c:	ef000001 	svc	0x00000001
    2490:	e3700021 	cmn	r0, #33	; 0x21
    2494:	e1a0c000 	mov	ip, r0
    2498:	0a000002 	beq	24a8 <ev3_led_set_color+0x58>
    249c:	e1a0000c 	mov	r0, ip
    24a0:	e28dd024 	add	sp, sp, #36	; 0x24
    24a4:	e8bd80f0 	pop	{r4, r5, r6, r7, pc}
    24a8:	e59f004c 	ldr	r0, [pc, #76]	; 24fc <ev3_led_set_color+0xac>
    24ac:	e3a06002 	mov	r6, #2
    24b0:	e58d6000 	str	r6, [sp]
    24b4:	e59f1044 	ldr	r1, [pc, #68]	; 2500 <ev3_led_set_color+0xb0>
    24b8:	e795e000 	ldr	lr, [r5, r0]
    24bc:	e3a000ca 	mov	r0, #202	; 0xca
    24c0:	e58d000c 	str	r0, [sp, #12]
    24c4:	e58de008 	str	lr, [sp, #8]
    24c8:	e7951001 	ldr	r1, [r5, r1]
    24cc:	e1a00002 	mov	r0, r2
    24d0:	e58d1010 	str	r1, [sp, #16]
    24d4:	e3a05001 	mov	r5, #1
    24d8:	e1a0100d 	mov	r1, sp
    24dc:	e1a07005 	mov	r7, r5
    24e0:	ef000001 	svc	0x00000001
    24e4:	e1500002 	cmp	r0, r2
    24e8:	aaffffeb 	bge	249c <ev3_led_set_color+0x4c>
    24ec:	e1a07006 	mov	r7, r6
    24f0:	ef000001 	svc	0x00000001
    24f4:	eaffffe8 	b	249c <ev3_led_set_color+0x4c>
    24f8:	00013b98 	muleq	r1, r8, fp
    24fc:	000000fc 	strdeq	r0, [r0], -ip
    2500:	00000100 	andeq	r0, r0, r0, lsl #2

00002504 <ev3_button_set_on_clicked>:
    2504:	e92d40f0 	push	{r4, r5, r6, r7, lr}
    2508:	e59f50dc 	ldr	r5, [pc, #220]	; 25ec <ev3_button_set_on_clicked+0xe8>
    250c:	e24dd024 	sub	sp, sp, #36	; 0x24
    2510:	e08f5005 	add	r5, pc, r5
    2514:	e3500005 	cmp	r0, #5
    2518:	908ff100 	addls	pc, pc, r0, lsl #2
    251c:	ea000030 	b	25e4 <ev3_button_set_on_clicked+0xe0>
    2520:	ea000004 	b	2538 <ev3_button_set_on_clicked+0x34>
    2524:	ea00000f 	b	2568 <ev3_button_set_on_clicked+0x64>
    2528:	ea000010 	b	2570 <ev3_button_set_on_clicked+0x6c>
    252c:	ea000011 	b	2578 <ev3_button_set_on_clicked+0x74>
    2530:	ea000012 	b	2580 <ev3_button_set_on_clicked+0x7c>
    2534:	ea000013 	b	2588 <ev3_button_set_on_clicked+0x84>
    2538:	e3a00000 	mov	r0, #0
    253c:	e3a03000 	mov	r3, #0
    2540:	e1a04003 	mov	r4, r3
    2544:	e3a0c019 	mov	ip, #25
    2548:	e1a0700c 	mov	r7, ip
    254c:	ef000001 	svc	0x00000001
    2550:	e3700021 	cmn	r0, #33	; 0x21
    2554:	e1a0c000 	mov	ip, r0
    2558:	0a00000c 	beq	2590 <ev3_button_set_on_clicked+0x8c>
    255c:	e1a0000c 	mov	r0, ip
    2560:	e28dd024 	add	sp, sp, #36	; 0x24
    2564:	e8bd80f0 	pop	{r4, r5, r6, r7, pc}
    2568:	e3a00001 	mov	r0, #1
    256c:	eafffff2 	b	253c <ev3_button_set_on_clicked+0x38>
    2570:	e3a00002 	mov	r0, #2
    2574:	eafffff0 	b	253c <ev3_button_set_on_clicked+0x38>
    2578:	e3a00003 	mov	r0, #3
    257c:	eaffffee 	b	253c <ev3_button_set_on_clicked+0x38>
    2580:	e3a00004 	mov	r0, #4
    2584:	eaffffec 	b	253c <ev3_button_set_on_clicked+0x38>
    2588:	e3a00005 	mov	r0, #5
    258c:	eaffffea 	b	253c <ev3_button_set_on_clicked+0x38>
    2590:	e59f1058 	ldr	r1, [pc, #88]	; 25f0 <ev3_button_set_on_clicked+0xec>
    2594:	e3a06002 	mov	r6, #2
    2598:	e58d6000 	str	r6, [sp]
    259c:	e59f2050 	ldr	r2, [pc, #80]	; 25f4 <ev3_button_set_on_clicked+0xf0>
    25a0:	e7950001 	ldr	r0, [r5, r1]
    25a4:	e3a010c4 	mov	r1, #196	; 0xc4
    25a8:	e58d0008 	str	r0, [sp, #8]
    25ac:	e58d100c 	str	r1, [sp, #12]
    25b0:	e7952002 	ldr	r2, [r5, r2]
    25b4:	e1a00003 	mov	r0, r3
    25b8:	e58d2010 	str	r2, [sp, #16]
    25bc:	e1a0100d 	mov	r1, sp
    25c0:	e1a02003 	mov	r2, r3
    25c4:	e3a05001 	mov	r5, #1
    25c8:	e1a07005 	mov	r7, r5
    25cc:	ef000001 	svc	0x00000001
    25d0:	e1500003 	cmp	r0, r3
    25d4:	aaffffe0 	bge	255c <ev3_button_set_on_clicked+0x58>
    25d8:	e1a07006 	mov	r7, r6
    25dc:	ef000001 	svc	0x00000001
    25e0:	eaffffdd 	b	255c <ev3_button_set_on_clicked+0x58>
    25e4:	e3e0c011 	mvn	ip, #17
    25e8:	eaffffdb 	b	255c <ev3_button_set_on_clicked+0x58>
    25ec:	00013af4 	strdeq	r3, [r1], -r4
    25f0:	000000fc 	strdeq	r0, [r0], -ip
    25f4:	00000100 	andeq	r0, r0, r0, lsl #2

000025f8 <ev3_button_is_pressed>:
    25f8:	e59f306c 	ldr	r3, [pc, #108]	; 266c <ev3_button_is_pressed+0x74>
    25fc:	e08f3003 	add	r3, pc, r3
    2600:	e3500005 	cmp	r0, #5
    2604:	908ff100 	addls	pc, pc, r0, lsl #2
    2608:	ea000015 	b	2664 <ev3_button_is_pressed+0x6c>
    260c:	ea000004 	b	2624 <ev3_button_is_pressed+0x2c>
    2610:	ea000009 	b	263c <ev3_button_is_pressed+0x44>
    2614:	ea00000a 	b	2644 <ev3_button_is_pressed+0x4c>
    2618:	ea00000b 	b	264c <ev3_button_is_pressed+0x54>
    261c:	ea00000c 	b	2654 <ev3_button_is_pressed+0x5c>
    2620:	ea00000d 	b	265c <ev3_button_is_pressed+0x64>
    2624:	e3a02000 	mov	r2, #0
    2628:	e59f1040 	ldr	r1, [pc, #64]	; 2670 <ev3_button_is_pressed+0x78>
    262c:	e7933001 	ldr	r3, [r3, r1]
    2630:	e5933014 	ldr	r3, [r3, #20]
    2634:	e7930002 	ldr	r0, [r3, r2]
    2638:	e12fff1e 	bx	lr
    263c:	e3a02004 	mov	r2, #4
    2640:	eafffff8 	b	2628 <ev3_button_is_pressed+0x30>
    2644:	e3a02008 	mov	r2, #8
    2648:	eafffff6 	b	2628 <ev3_button_is_pressed+0x30>
    264c:	e3a0200c 	mov	r2, #12
    2650:	eafffff4 	b	2628 <ev3_button_is_pressed+0x30>
    2654:	e3a02010 	mov	r2, #16
    2658:	eafffff2 	b	2628 <ev3_button_is_pressed+0x30>
    265c:	e3a02014 	mov	r2, #20
    2660:	eafffff0 	b	2628 <ev3_button_is_pressed+0x30>
    2664:	e3a00000 	mov	r0, #0
    2668:	e12fff1e 	bx	lr
    266c:	00013a08 	andeq	r3, r1, r8, lsl #20
    2670:	000001f8 	strdeq	r0, [r0], -r8

00002674 <ev3_sta_cyc>:
    2674:	e92d40f0 	push	{r4, r5, r6, r7, lr}
    2678:	e59f5088 	ldr	r5, [pc, #136]	; 2708 <ev3_sta_cyc+0x94>
    267c:	e3a01000 	mov	r1, #0
    2680:	e08f5005 	add	r5, pc, r5
    2684:	e24dd024 	sub	sp, sp, #36	; 0x24
    2688:	e1a02001 	mov	r2, r1
    268c:	e1a03001 	mov	r3, r1
    2690:	e1a04001 	mov	r4, r1
    2694:	e3a0c01c 	mov	ip, #28
    2698:	e1a0700c 	mov	r7, ip
    269c:	ef000001 	svc	0x00000001
    26a0:	e3700021 	cmn	r0, #33	; 0x21
    26a4:	e1a0c000 	mov	ip, r0
    26a8:	0a000002 	beq	26b8 <ev3_sta_cyc+0x44>
    26ac:	e1a0000c 	mov	r0, ip
    26b0:	e28dd024 	add	sp, sp, #36	; 0x24
    26b4:	e8bd80f0 	pop	{r4, r5, r6, r7, pc}
    26b8:	e59fe04c 	ldr	lr, [pc, #76]	; 270c <ev3_sta_cyc+0x98>
    26bc:	e3a06002 	mov	r6, #2
    26c0:	e58d6000 	str	r6, [sp]
    26c4:	e59f0044 	ldr	r0, [pc, #68]	; 2710 <ev3_sta_cyc+0x9c>
    26c8:	e795700e 	ldr	r7, [r5, lr]
    26cc:	e3a0e0d6 	mov	lr, #214	; 0xd6
    26d0:	e58d7008 	str	r7, [sp, #8]
    26d4:	e58de00c 	str	lr, [sp, #12]
    26d8:	e795e000 	ldr	lr, [r5, r0]
    26dc:	e1a00001 	mov	r0, r1
    26e0:	e58de010 	str	lr, [sp, #16]
    26e4:	e1a0100d 	mov	r1, sp
    26e8:	e3a05001 	mov	r5, #1
    26ec:	e1a07005 	mov	r7, r5
    26f0:	ef000001 	svc	0x00000001
    26f4:	e1500002 	cmp	r0, r2
    26f8:	aaffffeb 	bge	26ac <ev3_sta_cyc+0x38>
    26fc:	e1a07006 	mov	r7, r6
    2700:	ef000001 	svc	0x00000001
    2704:	eaffffe8 	b	26ac <ev3_sta_cyc+0x38>
    2708:	00013984 	andeq	r3, r1, r4, lsl #19
    270c:	000000fc 	strdeq	r0, [r0], -ip
    2710:	00000100 	andeq	r0, r0, r0, lsl #2

00002714 <ev3_stp_cyc>:
    2714:	e92d40f0 	push	{r4, r5, r6, r7, lr}
    2718:	e59f5088 	ldr	r5, [pc, #136]	; 27a8 <ev3_stp_cyc+0x94>
    271c:	e3a01000 	mov	r1, #0
    2720:	e08f5005 	add	r5, pc, r5
    2724:	e24dd024 	sub	sp, sp, #36	; 0x24
    2728:	e1a02001 	mov	r2, r1
    272c:	e1a03001 	mov	r3, r1
    2730:	e1a04001 	mov	r4, r1
    2734:	e3a0c01d 	mov	ip, #29
    2738:	e1a0700c 	mov	r7, ip
    273c:	ef000001 	svc	0x00000001
    2740:	e3700021 	cmn	r0, #33	; 0x21
    2744:	e1a0c000 	mov	ip, r0
    2748:	0a000002 	beq	2758 <ev3_stp_cyc+0x44>
    274c:	e1a0000c 	mov	r0, ip
    2750:	e28dd024 	add	sp, sp, #36	; 0x24
    2754:	e8bd80f0 	pop	{r4, r5, r6, r7, pc}
    2758:	e59fe04c 	ldr	lr, [pc, #76]	; 27ac <ev3_stp_cyc+0x98>
    275c:	e3a06002 	mov	r6, #2
    2760:	e58d6000 	str	r6, [sp]
    2764:	e59f0044 	ldr	r0, [pc, #68]	; 27b0 <ev3_stp_cyc+0x9c>
    2768:	e795700e 	ldr	r7, [r5, lr]
    276c:	e3a0e0dc 	mov	lr, #220	; 0xdc
    2770:	e58d7008 	str	r7, [sp, #8]
    2774:	e58de00c 	str	lr, [sp, #12]
    2778:	e795e000 	ldr	lr, [r5, r0]
    277c:	e1a00001 	mov	r0, r1
    2780:	e58de010 	str	lr, [sp, #16]
    2784:	e1a0100d 	mov	r1, sp
    2788:	e3a05001 	mov	r5, #1
    278c:	e1a07005 	mov	r7, r5
    2790:	ef000001 	svc	0x00000001
    2794:	e1500002 	cmp	r0, r2
    2798:	aaffffeb 	bge	274c <ev3_stp_cyc+0x38>
    279c:	e1a07006 	mov	r7, r6
    27a0:	ef000001 	svc	0x00000001
    27a4:	eaffffe8 	b	274c <ev3_stp_cyc+0x38>
    27a8:	000138e4 	andeq	r3, r1, r4, ror #17
    27ac:	000000fc 	strdeq	r0, [r0], -ip
    27b0:	00000100 	andeq	r0, r0, r0, lsl #2

000027b4 <ev3_memfile_load>:
    27b4:	e92d47f0 	push	{r4, r5, r6, r7, r8, r9, sl, lr}
    27b8:	e59fa1e0 	ldr	sl, [pc, #480]	; 29a0 <ev3_memfile_load+0x1ec>
    27bc:	e2504000 	subs	r4, r0, #0
    27c0:	e24dd020 	sub	sp, sp, #32
    27c4:	e1a08001 	mov	r8, r1
    27c8:	e08fa00a 	add	sl, pc, sl
    27cc:	0a00005f 	beq	2950 <ev3_memfile_load+0x19c>
    27d0:	e3510000 	cmp	r1, #0
    27d4:	0a000053 	beq	2928 <ev3_memfile_load+0x174>
    27d8:	e59f31c4 	ldr	r3, [pc, #452]	; 29a4 <ev3_memfile_load+0x1f0>
    27dc:	e79a1003 	ldr	r1, [sl, r3]
    27e0:	eb001705 	bl	83fc <fopen>
    27e4:	e2505000 	subs	r5, r0, #0
    27e8:	0a00005c 	beq	2960 <ev3_memfile_load+0x1ac>
    27ec:	e3a01000 	mov	r1, #0
    27f0:	e3a02002 	mov	r2, #2
    27f4:	eb0017c2 	bl	8704 <fseek>
    27f8:	e2506000 	subs	r6, r0, #0
    27fc:	1a000046 	bne	291c <ev3_memfile_load+0x168>
    2800:	e1a00005 	mov	r0, r5
    2804:	eb001907 	bl	8c28 <ftell>
    2808:	e2509000 	subs	r9, r0, #0
    280c:	ba000038 	blt	28f4 <ev3_memfile_load+0x140>
    2810:	e1a00005 	mov	r0, r5
    2814:	e1a01006 	mov	r1, r6
    2818:	e1a02006 	mov	r2, r6
    281c:	eb0017b8 	bl	8704 <fseek>
    2820:	e3500000 	cmp	r0, #0
    2824:	1a000032 	bne	28f4 <ev3_memfile_load+0x140>
    2828:	e1a00009 	mov	r0, r9
    282c:	eb001a16 	bl	908c <malloc>
    2830:	e2506000 	subs	r6, r0, #0
    2834:	0a000053 	beq	2988 <ev3_memfile_load+0x1d4>
    2838:	e0867009 	add	r7, r6, r9
    283c:	e1a04006 	mov	r4, r6
    2840:	ea000000 	b	2848 <ev3_memfile_load+0x94>
    2844:	e0844003 	add	r4, r4, r3
    2848:	e0642007 	rsb	r2, r4, r7
    284c:	e3520c02 	cmp	r2, #512	; 0x200
    2850:	23a02c02 	movcs	r2, #512	; 0x200
    2854:	e1a03005 	mov	r3, r5
    2858:	e1a00004 	mov	r0, r4
    285c:	e3a01001 	mov	r1, #1
    2860:	eb001793 	bl	86b4 <fread>
    2864:	e2503000 	subs	r3, r0, #0
    2868:	1afffff5 	bne	2844 <ev3_memfile_load+0x90>
    286c:	e1d520bc 	ldrh	r2, [r5, #12]
    2870:	e2122040 	ands	r2, r2, #64	; 0x40
    2874:	1a00002d 	bne	2930 <ev3_memfile_load+0x17c>
    2878:	e1570004 	cmp	r7, r4
    287c:	0a000011 	beq	28c8 <ev3_memfile_load+0x114>
    2880:	e59f1120 	ldr	r1, [pc, #288]	; 29a8 <ev3_memfile_load+0x1f4>
    2884:	e3a0c002 	mov	ip, #2
    2888:	e58dc000 	str	ip, [sp]
    288c:	e59f3118 	ldr	r3, [pc, #280]	; 29ac <ev3_memfile_load+0x1f8>
    2890:	e79ae001 	ldr	lr, [sl, r1]
    2894:	e3a0103f 	mov	r1, #63	; 0x3f
    2898:	e58d100c 	str	r1, [sp, #12]
    289c:	e58de008 	str	lr, [sp, #8]
    28a0:	e79a3003 	ldr	r3, [sl, r3]
    28a4:	e1a0100d 	mov	r1, sp
    28a8:	e58d3010 	str	r3, [sp, #16]
    28ac:	e1a04002 	mov	r4, r2
    28b0:	e1a03002 	mov	r3, r2
    28b4:	e3a0a001 	mov	sl, #1
    28b8:	e1a0700a 	mov	r7, sl
    28bc:	ef000001 	svc	0x00000001
    28c0:	e3500000 	cmp	r0, #0
    28c4:	ba000007 	blt	28e8 <ev3_memfile_load+0x134>
    28c8:	e3a04000 	mov	r4, #0
    28cc:	e8880240 	stm	r8, {r6, r9}
    28d0:	e5889008 	str	r9, [r8, #8]
    28d4:	e1a00005 	mov	r0, r5
    28d8:	eb001475 	bl	7ab4 <fclose>
    28dc:	e1a00004 	mov	r0, r4
    28e0:	e28dd020 	add	sp, sp, #32
    28e4:	e8bd87f0 	pop	{r4, r5, r6, r7, r8, r9, sl, pc}
    28e8:	e1a0700c 	mov	r7, ip
    28ec:	ef000001 	svc	0x00000001
    28f0:	eafffff4 	b	28c8 <ev3_memfile_load+0x114>
    28f4:	e3e04028 	mvn	r4, #40	; 0x28
    28f8:	e3a03000 	mov	r3, #0
    28fc:	e1a00006 	mov	r0, r6
    2900:	e5883000 	str	r3, [r8]
    2904:	eb0019e8 	bl	90ac <free>
    2908:	e3550000 	cmp	r5, #0
    290c:	1afffff0 	bne	28d4 <ev3_memfile_load+0x120>
    2910:	e1a00004 	mov	r0, r4
    2914:	e28dd020 	add	sp, sp, #32
    2918:	e8bd87f0 	pop	{r4, r5, r6, r7, r8, r9, sl, pc}
    291c:	e3a06000 	mov	r6, #0
    2920:	e3e04028 	mvn	r4, #40	; 0x28
    2924:	eafffff3 	b	28f8 <ev3_memfile_load+0x144>
    2928:	e3e04020 	mvn	r4, #32
    292c:	eaffffea 	b	28dc <ev3_memfile_load+0x128>
    2930:	e59f2078 	ldr	r2, [pc, #120]	; 29b0 <ev3_memfile_load+0x1fc>
    2934:	e59f3078 	ldr	r3, [pc, #120]	; 29b4 <ev3_memfile_load+0x200>
    2938:	e79a1002 	ldr	r1, [sl, r2]
    293c:	e3a00004 	mov	r0, #4
    2940:	e79a2003 	ldr	r2, [sl, r3]
    2944:	ebfff677 	bl	328 <syslog>
    2948:	e3e04010 	mvn	r4, #16
    294c:	eaffffe9 	b	28f8 <ev3_memfile_load+0x144>
    2950:	e3510000 	cmp	r1, #0
    2954:	1a00000d 	bne	2990 <ev3_memfile_load+0x1dc>
    2958:	e3e04010 	mvn	r4, #16
    295c:	eaffffde 	b	28dc <ev3_memfile_load+0x128>
    2960:	e59f2050 	ldr	r2, [pc, #80]	; 29b8 <ev3_memfile_load+0x204>
    2964:	e59f3048 	ldr	r3, [pc, #72]	; 29b4 <ev3_memfile_load+0x200>
    2968:	e79a1002 	ldr	r1, [sl, r2]
    296c:	e3a00004 	mov	r0, #4
    2970:	e79a2003 	ldr	r2, [sl, r3]
    2974:	e1a03004 	mov	r3, r4
    2978:	ebfff66a 	bl	328 <syslog>
    297c:	e1a06005 	mov	r6, r5
    2980:	e3e04010 	mvn	r4, #16
    2984:	eaffffdb 	b	28f8 <ev3_memfile_load+0x144>
    2988:	e3e04020 	mvn	r4, #32
    298c:	eaffffd9 	b	28f8 <ev3_memfile_load+0x144>
    2990:	e5814000 	str	r4, [r1]
    2994:	e3e04010 	mvn	r4, #16
    2998:	eb0019c3 	bl	90ac <free>
    299c:	eaffffce 	b	28dc <ev3_memfile_load+0x128>
    29a0:	0001383c 	andeq	r3, r1, ip, lsr r8
    29a4:	00000108 	andeq	r0, r0, r8, lsl #2
    29a8:	00000114 	andeq	r0, r0, r4, lsl r1
    29ac:	00000118 	andeq	r0, r0, r8, lsl r1
    29b0:	00000110 	andeq	r0, r0, r0, lsl r1
    29b4:	00000104 	andeq	r0, r0, r4, lsl #2
    29b8:	0000010c 	andeq	r0, r0, ip, lsl #2

000029bc <ev3_memfile_free>:
    29bc:	e2503000 	subs	r3, r0, #0
    29c0:	0a00000a 	beq	29f0 <ev3_memfile_free+0x34>
    29c4:	e5930000 	ldr	r0, [r3]
    29c8:	e3500000 	cmp	r0, #0
    29cc:	0a000005 	beq	29e8 <ev3_memfile_free+0x2c>
    29d0:	e92d4010 	push	{r4, lr}
    29d4:	e1a04003 	mov	r4, r3
    29d8:	eb0019b3 	bl	90ac <free>
    29dc:	e3a00000 	mov	r0, #0
    29e0:	e5840000 	str	r0, [r4]
    29e4:	e8bd8010 	pop	{r4, pc}
    29e8:	e3e00028 	mvn	r0, #40	; 0x28
    29ec:	e12fff1e 	bx	lr
    29f0:	e3e00010 	mvn	r0, #16
    29f4:	e12fff1e 	bx	lr

000029f8 <ev3_serial_open_file>:
    29f8:	e92d4070 	push	{r4, r5, r6, lr}
    29fc:	e59f50a4 	ldr	r5, [pc, #164]	; 2aa8 <ev3_serial_open_file+0xb0>
    2a00:	e3500000 	cmp	r0, #0
    2a04:	e08f5005 	add	r5, pc, r5
    2a08:	0a00000e 	beq	2a48 <ev3_serial_open_file+0x50>
    2a0c:	e3500001 	cmp	r0, #1
    2a10:	0a000018 	beq	2a78 <ev3_serial_open_file+0x80>
    2a14:	e3500002 	cmp	r0, #2
    2a18:	03a06005 	moveq	r6, #5
    2a1c:	1a00000b 	bne	2a50 <ev3_serial_open_file+0x58>
    2a20:	e59f2084 	ldr	r2, [pc, #132]	; 2aac <ev3_serial_open_file+0xb4>
    2a24:	e1a00006 	mov	r0, r6
    2a28:	e7951002 	ldr	r1, [r5, r2]
    2a2c:	eb001445 	bl	7b48 <fdopen>
    2a30:	e2504000 	subs	r4, r0, #0
    2a34:	0a000011 	beq	2a80 <ev3_serial_open_file+0x88>
    2a38:	e3a01000 	mov	r1, #0
    2a3c:	eb001b00 	bl	9644 <setbuf>
    2a40:	e1a00004 	mov	r0, r4
    2a44:	e8bd8070 	pop	{r4, r5, r6, pc}
    2a48:	e3a06003 	mov	r6, #3
    2a4c:	eafffff3 	b	2a20 <ev3_serial_open_file+0x28>
    2a50:	e59f2058 	ldr	r2, [pc, #88]	; 2ab0 <ev3_serial_open_file+0xb8>
    2a54:	e59f3058 	ldr	r3, [pc, #88]	; 2ab4 <ev3_serial_open_file+0xbc>
    2a58:	e7951002 	ldr	r1, [r5, r2]
    2a5c:	e7952003 	ldr	r2, [r5, r3]
    2a60:	e1a03000 	mov	r3, r0
    2a64:	e2822014 	add	r2, r2, #20
    2a68:	e3a00003 	mov	r0, #3
    2a6c:	ebfff62d 	bl	328 <syslog>
    2a70:	e3a00000 	mov	r0, #0
    2a74:	e8bd8070 	pop	{r4, r5, r6, pc}
    2a78:	e3a06004 	mov	r6, #4
    2a7c:	eaffffe7 	b	2a20 <ev3_serial_open_file+0x28>
    2a80:	e59f2030 	ldr	r2, [pc, #48]	; 2ab8 <ev3_serial_open_file+0xc0>
    2a84:	e59f3028 	ldr	r3, [pc, #40]	; 2ab4 <ev3_serial_open_file+0xbc>
    2a88:	e7951002 	ldr	r1, [r5, r2]
    2a8c:	e7952003 	ldr	r2, [r5, r3]
    2a90:	e3a00003 	mov	r0, #3
    2a94:	e1a03006 	mov	r3, r6
    2a98:	e2822014 	add	r2, r2, #20
    2a9c:	ebfff621 	bl	328 <syslog>
    2aa0:	e1a00004 	mov	r0, r4
    2aa4:	e8bd8070 	pop	{r4, r5, r6, pc}
    2aa8:	00013600 	andeq	r3, r1, r0, lsl #12
    2aac:	00000120 	andeq	r0, r0, r0, lsr #2
    2ab0:	0000011c 	andeq	r0, r0, ip, lsl r1
    2ab4:	00000104 	andeq	r0, r0, r4, lsl #2
    2ab8:	00000124 	andeq	r0, r0, r4, lsr #2

00002abc <ev3_sdcard_opendir>:
    2abc:	e92d40f0 	push	{r4, r5, r6, r7, lr}
    2ac0:	e59f5088 	ldr	r5, [pc, #136]	; 2b50 <ev3_sdcard_opendir+0x94>
    2ac4:	e3a01000 	mov	r1, #0
    2ac8:	e08f5005 	add	r5, pc, r5
    2acc:	e24dd024 	sub	sp, sp, #36	; 0x24
    2ad0:	e1a02001 	mov	r2, r1
    2ad4:	e1a03001 	mov	r3, r1
    2ad8:	e1a04001 	mov	r4, r1
    2adc:	e3a0c026 	mov	ip, #38	; 0x26
    2ae0:	e1a0700c 	mov	r7, ip
    2ae4:	ef000001 	svc	0x00000001
    2ae8:	e3700021 	cmn	r0, #33	; 0x21
    2aec:	e1a0c000 	mov	ip, r0
    2af0:	0a000002 	beq	2b00 <ev3_sdcard_opendir+0x44>
    2af4:	e1a0000c 	mov	r0, ip
    2af8:	e28dd024 	add	sp, sp, #36	; 0x24
    2afc:	e8bd80f0 	pop	{r4, r5, r6, r7, pc}
    2b00:	e59fe04c 	ldr	lr, [pc, #76]	; 2b54 <ev3_sdcard_opendir+0x98>
    2b04:	e3a06002 	mov	r6, #2
    2b08:	e58d6000 	str	r6, [sp]
    2b0c:	e59f0044 	ldr	r0, [pc, #68]	; 2b58 <ev3_sdcard_opendir+0x9c>
    2b10:	e795700e 	ldr	r7, [r5, lr]
    2b14:	e3a0e03d 	mov	lr, #61	; 0x3d
    2b18:	e58d7008 	str	r7, [sp, #8]
    2b1c:	e58de00c 	str	lr, [sp, #12]
    2b20:	e795e000 	ldr	lr, [r5, r0]
    2b24:	e1a00001 	mov	r0, r1
    2b28:	e58de010 	str	lr, [sp, #16]
    2b2c:	e1a0100d 	mov	r1, sp
    2b30:	e3a05001 	mov	r5, #1
    2b34:	e1a07005 	mov	r7, r5
    2b38:	ef000001 	svc	0x00000001
    2b3c:	e1500002 	cmp	r0, r2
    2b40:	aaffffeb 	bge	2af4 <ev3_sdcard_opendir+0x38>
    2b44:	e1a07006 	mov	r7, r6
    2b48:	ef000001 	svc	0x00000001
    2b4c:	eaffffe8 	b	2af4 <ev3_sdcard_opendir+0x38>
    2b50:	0001353c 	andeq	r3, r1, ip, lsr r5
    2b54:	00000128 	andeq	r0, r0, r8, lsr #2
    2b58:	0000012c 	andeq	r0, r0, ip, lsr #2

00002b5c <ev3_sdcard_readdir>:
    2b5c:	e59fc0ec 	ldr	ip, [pc, #236]	; 2c50 <ev3_sdcard_readdir+0xf4>
    2b60:	e92d40f0 	push	{r4, r5, r6, r7, lr}
    2b64:	e3a02000 	mov	r2, #0
    2b68:	e24ddf4d 	sub	sp, sp, #308	; 0x134
    2b6c:	e1a06001 	mov	r6, r1
    2b70:	e08fc00c 	add	ip, pc, ip
    2b74:	e1a03002 	mov	r3, r2
    2b78:	e1a04002 	mov	r4, r2
    2b7c:	e28d1024 	add	r1, sp, #36	; 0x24
    2b80:	e3a05027 	mov	r5, #39	; 0x27
    2b84:	e1a07005 	mov	r7, r5
    2b88:	ef000001 	svc	0x00000001
    2b8c:	e3700021 	cmn	r0, #33	; 0x21
    2b90:	e1a05000 	mov	r5, r0
    2b94:	0a000019 	beq	2c00 <ev3_sdcard_readdir+0xa4>
    2b98:	e3500000 	cmp	r0, #0
    2b9c:	0a000002 	beq	2bac <ev3_sdcard_readdir+0x50>
    2ba0:	e1a00005 	mov	r0, r5
    2ba4:	e28ddf4d 	add	sp, sp, #308	; 0x134
    2ba8:	e8bd80f0 	pop	{r4, r5, r6, r7, pc}
    2bac:	e5dd302c 	ldrb	r3, [sp, #44]	; 0x2c
    2bb0:	e1d100b4 	ldrh	r0, [r1, #4]
    2bb4:	e1a04001 	mov	r4, r1
    2bb8:	e2032004 	and	r2, r3, #4
    2bbc:	e2031001 	and	r1, r3, #1
    2bc0:	e2033002 	and	r3, r3, #2
    2bc4:	e1c600b4 	strh	r0, [r6, #4]
    2bc8:	e5861008 	str	r1, [r6, #8]
    2bcc:	e5862010 	str	r2, [r6, #16]
    2bd0:	e586300c 	str	r3, [r6, #12]
    2bd4:	e2841009 	add	r1, r4, #9
    2bd8:	e2860014 	add	r0, r6, #20
    2bdc:	e3a020ff 	mov	r2, #255	; 0xff
    2be0:	eb001b69 	bl	998c <strncpy>
    2be4:	e1d420b6 	ldrh	r2, [r4, #6]
    2be8:	e59d3024 	ldr	r3, [sp, #36]	; 0x24
    2bec:	e1a00005 	mov	r0, r5
    2bf0:	e1c620b6 	strh	r2, [r6, #6]
    2bf4:	e5863000 	str	r3, [r6]
    2bf8:	e28ddf4d 	add	sp, sp, #308	; 0x134
    2bfc:	e8bd80f0 	pop	{r4, r5, r6, r7, pc}
    2c00:	e59f004c 	ldr	r0, [pc, #76]	; 2c54 <ev3_sdcard_readdir+0xf8>
    2c04:	e3a06002 	mov	r6, #2
    2c08:	e58d6004 	str	r6, [sp, #4]
    2c0c:	e59f1044 	ldr	r1, [pc, #68]	; 2c58 <ev3_sdcard_readdir+0xfc>
    2c10:	e79ce000 	ldr	lr, [ip, r0]
    2c14:	e3a00043 	mov	r0, #67	; 0x43
    2c18:	e58d0010 	str	r0, [sp, #16]
    2c1c:	e58de00c 	str	lr, [sp, #12]
    2c20:	e79c1001 	ldr	r1, [ip, r1]
    2c24:	e1a00002 	mov	r0, r2
    2c28:	e58d1014 	str	r1, [sp, #20]
    2c2c:	e3a0c001 	mov	ip, #1
    2c30:	e28d1004 	add	r1, sp, #4
    2c34:	e1a0700c 	mov	r7, ip
    2c38:	ef000001 	svc	0x00000001
    2c3c:	e1500002 	cmp	r0, r2
    2c40:	aaffffd6 	bge	2ba0 <ev3_sdcard_readdir+0x44>
    2c44:	e1a07006 	mov	r7, r6
    2c48:	ef000001 	svc	0x00000001
    2c4c:	eaffffd3 	b	2ba0 <ev3_sdcard_readdir+0x44>
    2c50:	00013494 	muleq	r1, r4, r4
    2c54:	00000128 	andeq	r0, r0, r8, lsr #2
    2c58:	0000012c 	andeq	r0, r0, ip, lsr #2

00002c5c <ev3_sdcard_closedir>:
    2c5c:	e92d40f0 	push	{r4, r5, r6, r7, lr}
    2c60:	e59f5088 	ldr	r5, [pc, #136]	; 2cf0 <ev3_sdcard_closedir+0x94>
    2c64:	e3a01000 	mov	r1, #0
    2c68:	e08f5005 	add	r5, pc, r5
    2c6c:	e24dd024 	sub	sp, sp, #36	; 0x24
    2c70:	e1a02001 	mov	r2, r1
    2c74:	e1a03001 	mov	r3, r1
    2c78:	e1a04001 	mov	r4, r1
    2c7c:	e3a0c028 	mov	ip, #40	; 0x28
    2c80:	e1a0700c 	mov	r7, ip
    2c84:	ef000001 	svc	0x00000001
    2c88:	e3700021 	cmn	r0, #33	; 0x21
    2c8c:	e1a0c000 	mov	ip, r0
    2c90:	0a000002 	beq	2ca0 <ev3_sdcard_closedir+0x44>
    2c94:	e1a0000c 	mov	r0, ip
    2c98:	e28dd024 	add	sp, sp, #36	; 0x24
    2c9c:	e8bd80f0 	pop	{r4, r5, r6, r7, pc}
    2ca0:	e59fe04c 	ldr	lr, [pc, #76]	; 2cf4 <ev3_sdcard_closedir+0x98>
    2ca4:	e3a06002 	mov	r6, #2
    2ca8:	e58d6000 	str	r6, [sp]
    2cac:	e59f0044 	ldr	r0, [pc, #68]	; 2cf8 <ev3_sdcard_closedir+0x9c>
    2cb0:	e795700e 	ldr	r7, [r5, lr]
    2cb4:	e3a0e049 	mov	lr, #73	; 0x49
    2cb8:	e58d7008 	str	r7, [sp, #8]
    2cbc:	e58de00c 	str	lr, [sp, #12]
    2cc0:	e795e000 	ldr	lr, [r5, r0]
    2cc4:	e1a00001 	mov	r0, r1
    2cc8:	e58de010 	str	lr, [sp, #16]
    2ccc:	e1a0100d 	mov	r1, sp
    2cd0:	e3a05001 	mov	r5, #1
    2cd4:	e1a07005 	mov	r7, r5
    2cd8:	ef000001 	svc	0x00000001
    2cdc:	e1500002 	cmp	r0, r2
    2ce0:	aaffffeb 	bge	2c94 <ev3_sdcard_closedir+0x38>
    2ce4:	e1a07006 	mov	r7, r6
    2ce8:	ef000001 	svc	0x00000001
    2cec:	eaffffe8 	b	2c94 <ev3_sdcard_closedir+0x38>
    2cf0:	0001339c 	muleq	r1, ip, r3
    2cf4:	00000128 	andeq	r0, r0, r8, lsr #2
    2cf8:	0000012c 	andeq	r0, r0, ip, lsr #2

00002cfc <ev3_bluetooth_is_connected>:
    2cfc:	e92d4090 	push	{r4, r7, lr}
    2d00:	e3a02000 	mov	r2, #0
    2d04:	e24dd00c 	sub	sp, sp, #12
    2d08:	e1a03002 	mov	r3, r2
    2d0c:	e1a04002 	mov	r4, r2
    2d10:	e3a00002 	mov	r0, #2
    2d14:	e1a0100d 	mov	r1, sp
    2d18:	e3a0c00c 	mov	ip, #12
    2d1c:	e1a0700c 	mov	r7, ip
    2d20:	ef000001 	svc	0x00000001
    2d24:	e16f0f10 	clz	r0, r0
    2d28:	e1a002a0 	lsr	r0, r0, #5
    2d2c:	e28dd00c 	add	sp, sp, #12
    2d30:	e8bd8090 	pop	{r4, r7, pc}

00002d34 <ev3_speaker_set_volume>:
    2d34:	e92d40f0 	push	{r4, r5, r6, r7, lr}
    2d38:	e59f5088 	ldr	r5, [pc, #136]	; 2dc8 <ev3_speaker_set_volume+0x94>
    2d3c:	e3a01000 	mov	r1, #0
    2d40:	e08f5005 	add	r5, pc, r5
    2d44:	e24dd024 	sub	sp, sp, #36	; 0x24
    2d48:	e1a02001 	mov	r2, r1
    2d4c:	e1a03001 	mov	r3, r1
    2d50:	e1a04001 	mov	r4, r1
    2d54:	e3a0c01e 	mov	ip, #30
    2d58:	e1a0700c 	mov	r7, ip
    2d5c:	ef000001 	svc	0x00000001
    2d60:	e3700021 	cmn	r0, #33	; 0x21
    2d64:	e1a0c000 	mov	ip, r0
    2d68:	0a000002 	beq	2d78 <ev3_speaker_set_volume+0x44>
    2d6c:	e1a0000c 	mov	r0, ip
    2d70:	e28dd024 	add	sp, sp, #36	; 0x24
    2d74:	e8bd80f0 	pop	{r4, r5, r6, r7, pc}
    2d78:	e59fe04c 	ldr	lr, [pc, #76]	; 2dcc <ev3_speaker_set_volume+0x98>
    2d7c:	e3a06002 	mov	r6, #2
    2d80:	e58d6000 	str	r6, [sp]
    2d84:	e59f0044 	ldr	r0, [pc, #68]	; 2dd0 <ev3_speaker_set_volume+0x9c>
    2d88:	e795700e 	ldr	r7, [r5, lr]
    2d8c:	e3a0e042 	mov	lr, #66	; 0x42
    2d90:	e58d7008 	str	r7, [sp, #8]
    2d94:	e58de00c 	str	lr, [sp, #12]
    2d98:	e795e000 	ldr	lr, [r5, r0]
    2d9c:	e1a00001 	mov	r0, r1
    2da0:	e58de010 	str	lr, [sp, #16]
    2da4:	e1a0100d 	mov	r1, sp
    2da8:	e3a05001 	mov	r5, #1
    2dac:	e1a07005 	mov	r7, r5
    2db0:	ef000001 	svc	0x00000001
    2db4:	e1500002 	cmp	r0, r2
    2db8:	aaffffeb 	bge	2d6c <ev3_speaker_set_volume+0x38>
    2dbc:	e1a07006 	mov	r7, r6
    2dc0:	ef000001 	svc	0x00000001
    2dc4:	eaffffe8 	b	2d6c <ev3_speaker_set_volume+0x38>
    2dc8:	000132c4 	andeq	r3, r1, r4, asr #5
    2dcc:	00000130 	andeq	r0, r0, r0, lsr r1
    2dd0:	00000134 	andeq	r0, r0, r4, lsr r1

00002dd4 <ev3_speaker_play_tone>:
    2dd4:	e92d40f0 	push	{r4, r5, r6, r7, lr}
    2dd8:	e59f5084 	ldr	r5, [pc, #132]	; 2e64 <ev3_speaker_play_tone+0x90>
    2ddc:	e3a02000 	mov	r2, #0
    2de0:	e08f5005 	add	r5, pc, r5
    2de4:	e24dd024 	sub	sp, sp, #36	; 0x24
    2de8:	e1a03002 	mov	r3, r2
    2dec:	e1a04002 	mov	r4, r2
    2df0:	e3a0c01f 	mov	ip, #31
    2df4:	e1a0700c 	mov	r7, ip
    2df8:	ef000001 	svc	0x00000001
    2dfc:	e3700021 	cmn	r0, #33	; 0x21
    2e00:	e1a0c000 	mov	ip, r0
    2e04:	0a000002 	beq	2e14 <ev3_speaker_play_tone+0x40>
    2e08:	e1a0000c 	mov	r0, ip
    2e0c:	e28dd024 	add	sp, sp, #36	; 0x24
    2e10:	e8bd80f0 	pop	{r4, r5, r6, r7, pc}
    2e14:	e59f004c 	ldr	r0, [pc, #76]	; 2e68 <ev3_speaker_play_tone+0x94>
    2e18:	e3a06002 	mov	r6, #2
    2e1c:	e58d6000 	str	r6, [sp]
    2e20:	e59f1044 	ldr	r1, [pc, #68]	; 2e6c <ev3_speaker_play_tone+0x98>
    2e24:	e795e000 	ldr	lr, [r5, r0]
    2e28:	e3a00048 	mov	r0, #72	; 0x48
    2e2c:	e58d000c 	str	r0, [sp, #12]
    2e30:	e58de008 	str	lr, [sp, #8]
    2e34:	e7951001 	ldr	r1, [r5, r1]
    2e38:	e1a00002 	mov	r0, r2
    2e3c:	e58d1010 	str	r1, [sp, #16]
    2e40:	e3a05001 	mov	r5, #1
    2e44:	e1a0100d 	mov	r1, sp
    2e48:	e1a07005 	mov	r7, r5
    2e4c:	ef000001 	svc	0x00000001
    2e50:	e1500002 	cmp	r0, r2
    2e54:	aaffffeb 	bge	2e08 <ev3_speaker_play_tone+0x34>
    2e58:	e1a07006 	mov	r7, r6
    2e5c:	ef000001 	svc	0x00000001
    2e60:	eaffffe8 	b	2e08 <ev3_speaker_play_tone+0x34>
    2e64:	00013224 	andeq	r3, r1, r4, lsr #4
    2e68:	00000130 	andeq	r0, r0, r0, lsr r1
    2e6c:	00000134 	andeq	r0, r0, r4, lsr r1

00002e70 <ev3_speaker_play_file>:
    2e70:	e92d40f0 	push	{r4, r5, r6, r7, lr}
    2e74:	e59f50a8 	ldr	r5, [pc, #168]	; 2f24 <ev3_speaker_play_file+0xb4>
    2e78:	e250c000 	subs	ip, r0, #0
    2e7c:	e24dd024 	sub	sp, sp, #36	; 0x24
    2e80:	e08f5005 	add	r5, pc, r5
    2e84:	0a000024 	beq	2f1c <ev3_speaker_play_file+0xac>
    2e88:	e59c0000 	ldr	r0, [ip]
    2e8c:	e3500000 	cmp	r0, #0
    2e90:	0a000021 	beq	2f1c <ev3_speaker_play_file+0xac>
    2e94:	e3a03000 	mov	r3, #0
    2e98:	e1a02001 	mov	r2, r1
    2e9c:	e1a04003 	mov	r4, r3
    2ea0:	e59c1004 	ldr	r1, [ip, #4]
    2ea4:	e3a0c020 	mov	ip, #32
    2ea8:	e1a0700c 	mov	r7, ip
    2eac:	ef000001 	svc	0x00000001
    2eb0:	e3700021 	cmn	r0, #33	; 0x21
    2eb4:	e1a0c000 	mov	ip, r0
    2eb8:	0a000002 	beq	2ec8 <ev3_speaker_play_file+0x58>
    2ebc:	e1a0000c 	mov	r0, ip
    2ec0:	e28dd024 	add	sp, sp, #36	; 0x24
    2ec4:	e8bd80f0 	pop	{r4, r5, r6, r7, pc}
    2ec8:	e59f1058 	ldr	r1, [pc, #88]	; 2f28 <ev3_speaker_play_file+0xb8>
    2ecc:	e3a06002 	mov	r6, #2
    2ed0:	e58d6000 	str	r6, [sp]
    2ed4:	e59f2050 	ldr	r2, [pc, #80]	; 2f2c <ev3_speaker_play_file+0xbc>
    2ed8:	e7950001 	ldr	r0, [r5, r1]
    2edc:	e3a0104e 	mov	r1, #78	; 0x4e
    2ee0:	e58d0008 	str	r0, [sp, #8]
    2ee4:	e58d100c 	str	r1, [sp, #12]
    2ee8:	e7952002 	ldr	r2, [r5, r2]
    2eec:	e1a00003 	mov	r0, r3
    2ef0:	e58d2010 	str	r2, [sp, #16]
    2ef4:	e1a0100d 	mov	r1, sp
    2ef8:	e1a02003 	mov	r2, r3
    2efc:	e3a05001 	mov	r5, #1
    2f00:	e1a07005 	mov	r7, r5
    2f04:	ef000001 	svc	0x00000001
    2f08:	e1500003 	cmp	r0, r3
    2f0c:	aaffffea 	bge	2ebc <ev3_speaker_play_file+0x4c>
    2f10:	e1a07006 	mov	r7, r6
    2f14:	ef000001 	svc	0x00000001
    2f18:	eaffffe7 	b	2ebc <ev3_speaker_play_file+0x4c>
    2f1c:	e3e0c010 	mvn	ip, #16
    2f20:	eaffffe5 	b	2ebc <ev3_speaker_play_file+0x4c>
    2f24:	00013184 	andeq	r3, r1, r4, lsl #3
    2f28:	00000130 	andeq	r0, r0, r0, lsr r1
    2f2c:	00000134 	andeq	r0, r0, r4, lsr r1

00002f30 <ev3_speaker_stop>:
    2f30:	e92d40f0 	push	{r4, r5, r6, r7, lr}
    2f34:	e59f508c 	ldr	r5, [pc, #140]	; 2fc8 <ev3_speaker_stop+0x98>
    2f38:	e3a00000 	mov	r0, #0
    2f3c:	e08f5005 	add	r5, pc, r5
    2f40:	e24dd024 	sub	sp, sp, #36	; 0x24
    2f44:	e1a01000 	mov	r1, r0
    2f48:	e1a02000 	mov	r2, r0
    2f4c:	e1a03000 	mov	r3, r0
    2f50:	e1a04000 	mov	r4, r0
    2f54:	e3a0c01f 	mov	ip, #31
    2f58:	e1a0700c 	mov	r7, ip
    2f5c:	ef000001 	svc	0x00000001
    2f60:	e3700021 	cmn	r0, #33	; 0x21
    2f64:	e1a0c000 	mov	ip, r0
    2f68:	0a000002 	beq	2f78 <ev3_speaker_stop+0x48>
    2f6c:	e1a0000c 	mov	r0, ip
    2f70:	e28dd024 	add	sp, sp, #36	; 0x24
    2f74:	e8bd80f0 	pop	{r4, r5, r6, r7, pc}
    2f78:	e59f004c 	ldr	r0, [pc, #76]	; 2fcc <ev3_speaker_stop+0x9c>
    2f7c:	e3a06002 	mov	r6, #2
    2f80:	e58d6000 	str	r6, [sp]
    2f84:	e59f1044 	ldr	r1, [pc, #68]	; 2fd0 <ev3_speaker_stop+0xa0>
    2f88:	e795e000 	ldr	lr, [r5, r0]
    2f8c:	e3a00048 	mov	r0, #72	; 0x48
    2f90:	e58d000c 	str	r0, [sp, #12]
    2f94:	e58de008 	str	lr, [sp, #8]
    2f98:	e7951001 	ldr	r1, [r5, r1]
    2f9c:	e1a00002 	mov	r0, r2
    2fa0:	e58d1010 	str	r1, [sp, #16]
    2fa4:	e3a05001 	mov	r5, #1
    2fa8:	e1a0100d 	mov	r1, sp
    2fac:	e1a07005 	mov	r7, r5
    2fb0:	ef000001 	svc	0x00000001
    2fb4:	e1500002 	cmp	r0, r2
    2fb8:	aaffffeb 	bge	2f6c <ev3_speaker_stop+0x3c>
    2fbc:	e1a07006 	mov	r7, r6
    2fc0:	ef000001 	svc	0x00000001
    2fc4:	eaffffe8 	b	2f6c <ev3_speaker_stop+0x3c>
    2fc8:	000130c8 	andeq	r3, r1, r8, asr #1
    2fcc:	00000130 	andeq	r0, r0, r0, lsr r1
    2fd0:	00000134 	andeq	r0, r0, r4, lsr r1

00002fd4 <bitmap_bitblt>:
    2fd4:	e92d4ff0 	push	{r4, r5, r6, r7, r8, r9, sl, fp, lr}
    2fd8:	e24dd01c 	sub	sp, sp, #28
    2fdc:	e59dc048 	ldr	ip, [sp, #72]	; 0x48
    2fe0:	e58d0000 	str	r0, [sp]
    2fe4:	e35c0000 	cmp	ip, #0
    2fe8:	e58d2004 	str	r2, [sp, #4]
    2fec:	da000065 	ble	3188 <bitmap_bitblt+0x1b4>
    2ff0:	e59d2040 	ldr	r2, [sp, #64]	; 0x40
    2ff4:	e59fb3c0 	ldr	fp, [pc, #960]	; 33bc <bitmap_bitblt+0x3e8>
    2ff8:	e59d604c 	ldr	r6, [sp, #76]	; 0x4c
    2ffc:	e082000c 	add	r0, r2, ip
    3000:	e58d0010 	str	r0, [sp, #16]
    3004:	e3560000 	cmp	r6, #0
    3008:	da000059 	ble	3174 <bitmap_bitblt+0x1a0>
    300c:	e0cc029b 	smull	r0, ip, fp, r2
    3010:	e59d0050 	ldr	r0, [sp, #80]	; 0x50
    3014:	e04ccfc2 	sub	ip, ip, r2, asr #31
    3018:	e35000ff 	cmp	r0, #255	; 0xff
    301c:	e08c008c 	add	r0, ip, ip, lsl #1
    3020:	e0600002 	rsb	r0, r0, r2
    3024:	e2600002 	rsb	r0, r0, #2
    3028:	e3a0e003 	mov	lr, #3
    302c:	e0800080 	add	r0, r0, r0, lsl #1
    3030:	e1a0001e 	lsl	r0, lr, r0
    3034:	e1e0e000 	mvn	lr, r0
    3038:	e20ee0ff 	and	lr, lr, #255	; 0xff
    303c:	e20000ff 	and	r0, r0, #255	; 0xff
    3040:	e58de008 	str	lr, [sp, #8]
    3044:	e58d000c 	str	r0, [sp, #12]
    3048:	0a0000bb 	beq	333c <bitmap_bitblt+0x368>
    304c:	e59d0050 	ldr	r0, [sp, #80]	; 0x50
    3050:	da000095 	ble	32ac <bitmap_bitblt+0x2d8>
    3054:	e3500cff 	cmp	r0, #65280	; 0xff00
    3058:	0a00004c 	beq	3190 <bitmap_bitblt+0x1bc>
    305c:	e59fe35c 	ldr	lr, [pc, #860]	; 33c0 <bitmap_bitblt+0x3ec>
    3060:	e150000e 	cmp	r0, lr
    3064:	1a000047 	bne	3188 <bitmap_bitblt+0x1b4>
    3068:	e0ce019b 	smull	r0, lr, fp, r1
    306c:	e3a04003 	mov	r4, #3
    3070:	e04eefc1 	sub	lr, lr, r1, asr #31
    3074:	e08e008e 	add	r0, lr, lr, lsl #1
    3078:	e0600001 	rsb	r0, r0, r1
    307c:	e2600002 	rsb	r0, r0, #2
    3080:	e0800080 	add	r0, r0, r0, lsl #1
    3084:	e1a00014 	lsl	r0, r4, r0
    3088:	e59d8044 	ldr	r8, [sp, #68]	; 0x44
    308c:	e59d5004 	ldr	r5, [sp, #4]
    3090:	e20000ff 	and	r0, r0, #255	; 0xff
    3094:	e3a09000 	mov	r9, #0
    3098:	e58dc014 	str	ip, [sp, #20]
    309c:	e3510000 	cmp	r1, #0
    30a0:	ba0000a3 	blt	3334 <bitmap_bitblt+0x360>
    30a4:	e59da000 	ldr	sl, [sp]
    30a8:	e59a7000 	ldr	r7, [sl]
    30ac:	e1a0400a 	mov	r4, sl
    30b0:	e1570001 	cmp	r7, r1
    30b4:	c3a04000 	movgt	r4, #0
    30b8:	d3a04001 	movle	r4, #1
    30bc:	e1944fa5 	orrs	r4, r4, r5, lsr #31
    30c0:	1a00009b 	bne	3334 <bitmap_bitblt+0x360>
    30c4:	e59aa004 	ldr	sl, [sl, #4]
    30c8:	e155000a 	cmp	r5, sl
    30cc:	aa00000a 	bge	30fc <bitmap_bitblt+0x128>
    30d0:	e2877002 	add	r7, r7, #2
    30d4:	e59da000 	ldr	sl, [sp]
    30d8:	e0c4c79b 	smull	ip, r4, fp, r7
    30dc:	e59aa008 	ldr	sl, [sl, #8]
    30e0:	e0447fc7 	sub	r7, r4, r7, asr #31
    30e4:	e02aa597 	mla	sl, r7, r5, sl
    30e8:	e7da400e 	ldrb	r4, [sl, lr]
    30ec:	e0044000 	and	r4, r4, r0
    30f0:	e0644000 	rsb	r4, r4, r0
    30f4:	e16f4f14 	clz	r4, r4
    30f8:	e1a042a4 	lsr	r4, r4, #5
    30fc:	e3520000 	cmp	r2, #0
    3100:	ba000016 	blt	3160 <bitmap_bitblt+0x18c>
    3104:	e5937000 	ldr	r7, [r3]
    3108:	e1520007 	cmp	r2, r7
    310c:	b3a0a000 	movlt	sl, #0
    3110:	a3a0a001 	movge	sl, #1
    3114:	e19aafa8 	orrs	sl, sl, r8, lsr #31
    3118:	1a000010 	bne	3160 <bitmap_bitblt+0x18c>
    311c:	e593a004 	ldr	sl, [r3, #4]
    3120:	e158000a 	cmp	r8, sl
    3124:	aa00000d 	bge	3160 <bitmap_bitblt+0x18c>
    3128:	e2877002 	add	r7, r7, #2
    312c:	e0cac79b 	smull	ip, sl, fp, r7
    3130:	e59dc014 	ldr	ip, [sp, #20]
    3134:	e04a7fc7 	sub	r7, sl, r7, asr #31
    3138:	e02cc798 	mla	ip, r8, r7, ip
    313c:	e3540000 	cmp	r4, #0
    3140:	e5934008 	ldr	r4, [r3, #8]
    3144:	e1a0700c 	mov	r7, ip
    3148:	e7d4a00c 	ldrb	sl, [r4, ip]
    314c:	059dc00c 	ldreq	ip, [sp, #12]
    3150:	159dc008 	ldrne	ip, [sp, #8]
    3154:	018ca00a 	orreq	sl, ip, sl
    3158:	100aa00c 	andne	sl, sl, ip
    315c:	e7c4a007 	strb	sl, [r4, r7]
    3160:	e2899001 	add	r9, r9, #1
    3164:	e1560009 	cmp	r6, r9
    3168:	e2888001 	add	r8, r8, #1
    316c:	e2855001 	add	r5, r5, #1
    3170:	caffffc9 	bgt	309c <bitmap_bitblt+0xc8>
    3174:	e59d0010 	ldr	r0, [sp, #16]
    3178:	e2822001 	add	r2, r2, #1
    317c:	e1520000 	cmp	r2, r0
    3180:	e2811001 	add	r1, r1, #1
    3184:	1affff9e 	bne	3004 <bitmap_bitblt+0x30>
    3188:	e28dd01c 	add	sp, sp, #28
    318c:	e8bd8ff0 	pop	{r4, r5, r6, r7, r8, r9, sl, fp, pc}
    3190:	e0ce019b 	smull	r0, lr, fp, r1
    3194:	e3a04003 	mov	r4, #3
    3198:	e04eefc1 	sub	lr, lr, r1, asr #31
    319c:	e08e008e 	add	r0, lr, lr, lsl #1
    31a0:	e0600001 	rsb	r0, r0, r1
    31a4:	e2600002 	rsb	r0, r0, #2
    31a8:	e0800080 	add	r0, r0, r0, lsl #1
    31ac:	e1a00014 	lsl	r0, r4, r0
    31b0:	e3510000 	cmp	r1, #0
    31b4:	e59d8044 	ldr	r8, [sp, #68]	; 0x44
    31b8:	e59d5004 	ldr	r5, [sp, #4]
    31bc:	e20000ff 	and	r0, r0, #255	; 0xff
    31c0:	e3a09000 	mov	r9, #0
    31c4:	e58dc014 	str	ip, [sp, #20]
    31c8:	ba000035 	blt	32a4 <bitmap_bitblt+0x2d0>
    31cc:	e59da000 	ldr	sl, [sp]
    31d0:	e59a7000 	ldr	r7, [sl]
    31d4:	e1a0400a 	mov	r4, sl
    31d8:	e1570001 	cmp	r7, r1
    31dc:	c3a04000 	movgt	r4, #0
    31e0:	d3a04001 	movle	r4, #1
    31e4:	e1944fa5 	orrs	r4, r4, r5, lsr #31
    31e8:	1a00002d 	bne	32a4 <bitmap_bitblt+0x2d0>
    31ec:	e59aa004 	ldr	sl, [sl, #4]
    31f0:	e155000a 	cmp	r5, sl
    31f4:	aa00000a 	bge	3224 <bitmap_bitblt+0x250>
    31f8:	e2877002 	add	r7, r7, #2
    31fc:	e59da000 	ldr	sl, [sp]
    3200:	e0c4c79b 	smull	ip, r4, fp, r7
    3204:	e59aa008 	ldr	sl, [sl, #8]
    3208:	e0447fc7 	sub	r7, r4, r7, asr #31
    320c:	e02aa597 	mla	sl, r7, r5, sl
    3210:	e7da400e 	ldrb	r4, [sl, lr]
    3214:	e0044000 	and	r4, r4, r0
    3218:	e0644000 	rsb	r4, r4, r0
    321c:	e16f4f14 	clz	r4, r4
    3220:	e1a042a4 	lsr	r4, r4, #5
    3224:	e3520000 	cmp	r2, #0
    3228:	ba000016 	blt	3288 <bitmap_bitblt+0x2b4>
    322c:	e5937000 	ldr	r7, [r3]
    3230:	e1520007 	cmp	r2, r7
    3234:	b3a0a000 	movlt	sl, #0
    3238:	a3a0a001 	movge	sl, #1
    323c:	e19aafa8 	orrs	sl, sl, r8, lsr #31
    3240:	1a000010 	bne	3288 <bitmap_bitblt+0x2b4>
    3244:	e593a004 	ldr	sl, [r3, #4]
    3248:	e158000a 	cmp	r8, sl
    324c:	aa00000d 	bge	3288 <bitmap_bitblt+0x2b4>
    3250:	e2877002 	add	r7, r7, #2
    3254:	e0cac79b 	smull	ip, sl, fp, r7
    3258:	e59dc014 	ldr	ip, [sp, #20]
    325c:	e04a7fc7 	sub	r7, sl, r7, asr #31
    3260:	e02cc798 	mla	ip, r8, r7, ip
    3264:	e3540000 	cmp	r4, #0
    3268:	e5934008 	ldr	r4, [r3, #8]
    326c:	e1a0700c 	mov	r7, ip
    3270:	e7d4a00c 	ldrb	sl, [r4, ip]
    3274:	159dc00c 	ldrne	ip, [sp, #12]
    3278:	059dc008 	ldreq	ip, [sp, #8]
    327c:	118ca00a 	orrne	sl, ip, sl
    3280:	000aa00c 	andeq	sl, sl, ip
    3284:	e7c4a007 	strb	sl, [r4, r7]
    3288:	e2899001 	add	r9, r9, #1
    328c:	e1560009 	cmp	r6, r9
    3290:	e2888001 	add	r8, r8, #1
    3294:	e2855001 	add	r5, r5, #1
    3298:	daffffb5 	ble	3174 <bitmap_bitblt+0x1a0>
    329c:	e3510000 	cmp	r1, #0
    32a0:	aaffffc9 	bge	31cc <bitmap_bitblt+0x1f8>
    32a4:	e3a04000 	mov	r4, #0
    32a8:	eaffffdd 	b	3224 <bitmap_bitblt+0x250>
    32ac:	e3500000 	cmp	r0, #0
    32b0:	1affffb4 	bne	3188 <bitmap_bitblt+0x1b4>
    32b4:	e59d7050 	ldr	r7, [sp, #80]	; 0x50
    32b8:	e59d9008 	ldr	r9, [sp, #8]
    32bc:	e59d8044 	ldr	r8, [sp, #68]	; 0x44
    32c0:	e3520000 	cmp	r2, #0
    32c4:	e0884007 	add	r4, r8, r7
    32c8:	ba000015 	blt	3324 <bitmap_bitblt+0x350>
    32cc:	e593e000 	ldr	lr, [r3]
    32d0:	e28e5002 	add	r5, lr, #2
    32d4:	e0c0a59b 	smull	sl, r0, fp, r5
    32d8:	e152000e 	cmp	r2, lr
    32dc:	b3a0e000 	movlt	lr, #0
    32e0:	a3a0e001 	movge	lr, #1
    32e4:	e0400fc5 	sub	r0, r0, r5, asr #31
    32e8:	e19eefa4 	orrs	lr, lr, r4, lsr #31
    32ec:	e020c094 	mla	r0, r4, r0, ip
    32f0:	1a000005 	bne	330c <bitmap_bitblt+0x338>
    32f4:	e593e004 	ldr	lr, [r3, #4]
    32f8:	e154000e 	cmp	r4, lr
    32fc:	b5935008 	ldrlt	r5, [r3, #8]
    3300:	b7d5e000 	ldrblt	lr, [r5, r0]
    3304:	b00ee009 	andlt	lr, lr, r9
    3308:	b7c5e000 	strblt	lr, [r5, r0]
    330c:	e2877001 	add	r7, r7, #1
    3310:	e1560007 	cmp	r6, r7
    3314:	e2844001 	add	r4, r4, #1
    3318:	daffff95 	ble	3174 <bitmap_bitblt+0x1a0>
    331c:	e3520000 	cmp	r2, #0
    3320:	aaffffe9 	bge	32cc <bitmap_bitblt+0x2f8>
    3324:	e2877001 	add	r7, r7, #1
    3328:	e1560007 	cmp	r6, r7
    332c:	caffffe3 	bgt	32c0 <bitmap_bitblt+0x2ec>
    3330:	eaffff8f 	b	3174 <bitmap_bitblt+0x1a0>
    3334:	e3a04000 	mov	r4, #0
    3338:	eaffff6f 	b	30fc <bitmap_bitblt+0x128>
    333c:	e59d900c 	ldr	r9, [sp, #12]
    3340:	e59d8044 	ldr	r8, [sp, #68]	; 0x44
    3344:	e3a07000 	mov	r7, #0
    3348:	e3520000 	cmp	r2, #0
    334c:	e0884007 	add	r4, r8, r7
    3350:	ba000015 	blt	33ac <bitmap_bitblt+0x3d8>
    3354:	e593e000 	ldr	lr, [r3]
    3358:	e28e5002 	add	r5, lr, #2
    335c:	e0c0a59b 	smull	sl, r0, fp, r5
    3360:	e152000e 	cmp	r2, lr
    3364:	b3a0e000 	movlt	lr, #0
    3368:	a3a0e001 	movge	lr, #1
    336c:	e0400fc5 	sub	r0, r0, r5, asr #31
    3370:	e19eefa4 	orrs	lr, lr, r4, lsr #31
    3374:	e020c094 	mla	r0, r4, r0, ip
    3378:	1a000005 	bne	3394 <bitmap_bitblt+0x3c0>
    337c:	e593e004 	ldr	lr, [r3, #4]
    3380:	e154000e 	cmp	r4, lr
    3384:	b5935008 	ldrlt	r5, [r3, #8]
    3388:	b7d5e000 	ldrblt	lr, [r5, r0]
    338c:	b18ee009 	orrlt	lr, lr, r9
    3390:	b7c5e000 	strblt	lr, [r5, r0]
    3394:	e2877001 	add	r7, r7, #1
    3398:	e1560007 	cmp	r6, r7
    339c:	e2844001 	add	r4, r4, #1
    33a0:	daffff73 	ble	3174 <bitmap_bitblt+0x1a0>
    33a4:	e3520000 	cmp	r2, #0
    33a8:	aaffffe9 	bge	3354 <bitmap_bitblt+0x380>
    33ac:	e2877001 	add	r7, r7, #1
    33b0:	e1560007 	cmp	r6, r7
    33b4:	caffffe3 	bgt	3348 <bitmap_bitblt+0x374>
    33b8:	eaffff6d 	b	3174 <bitmap_bitblt+0x1a0>
    33bc:	55555556 	ldrbpl	r5, [r5, #-1366]	; 0xfffffaaa
    33c0:	0000ffff 	strdeq	pc, [r0], -pc	; <UNPREDICTABLE>

000033c4 <ev3_lcd_set_font>:
    33c4:	e59f1028 	ldr	r1, [pc, #40]	; 33f4 <ev3_lcd_set_font+0x30>
    33c8:	e3500001 	cmp	r0, #1
    33cc:	e1a02000 	mov	r2, r0
    33d0:	e08f1001 	add	r1, pc, r1
    33d4:	8a000004 	bhi	33ec <ev3_lcd_set_font+0x28>
    33d8:	e59f3018 	ldr	r3, [pc, #24]	; 33f8 <ev3_lcd_set_font+0x34>
    33dc:	e3a00000 	mov	r0, #0
    33e0:	e7913003 	ldr	r3, [r1, r3]
    33e4:	e5c32000 	strb	r2, [r3]
    33e8:	e12fff1e 	bx	lr
    33ec:	e3e00011 	mvn	r0, #17
    33f0:	e12fff1e 	bx	lr
    33f4:	00012c34 	andeq	r2, r1, r4, lsr ip
    33f8:	0000015c 	andeq	r0, r0, ip, asr r1

000033fc <ev3_font_get_size>:
    33fc:	e59fc064 	ldr	ip, [pc, #100]	; 3468 <ev3_font_get_size+0x6c>
    3400:	e3500001 	cmp	r0, #1
    3404:	e1a03000 	mov	r3, r0
    3408:	e08fc00c 	add	ip, pc, ip
    340c:	8a000013 	bhi	3460 <ev3_font_get_size+0x64>
    3410:	e3510000 	cmp	r1, #0
    3414:	0a000005 	beq	3430 <ev3_font_get_size+0x34>
    3418:	e59f004c 	ldr	r0, [pc, #76]	; 346c <ev3_font_get_size+0x70>
    341c:	e79c0000 	ldr	r0, [ip, r0]
    3420:	e0800103 	add	r0, r0, r3, lsl #2
    3424:	e5900004 	ldr	r0, [r0, #4]
    3428:	e5900004 	ldr	r0, [r0, #4]
    342c:	e5810000 	str	r0, [r1]
    3430:	e3520000 	cmp	r2, #0
    3434:	0a000007 	beq	3458 <ev3_font_get_size+0x5c>
    3438:	e59f102c 	ldr	r1, [pc, #44]	; 346c <ev3_font_get_size+0x70>
    343c:	e3a00000 	mov	r0, #0
    3440:	e79c1001 	ldr	r1, [ip, r1]
    3444:	e0813103 	add	r3, r1, r3, lsl #2
    3448:	e5933004 	ldr	r3, [r3, #4]
    344c:	e5933000 	ldr	r3, [r3]
    3450:	e5823000 	str	r3, [r2]
    3454:	e12fff1e 	bx	lr
    3458:	e1a00002 	mov	r0, r2
    345c:	e12fff1e 	bx	lr
    3460:	e3e00011 	mvn	r0, #17
    3464:	e12fff1e 	bx	lr
    3468:	00012bfc 	strdeq	r2, [r1], -ip
    346c:	0000015c 	andeq	r0, r0, ip, asr r1

00003470 <ev3_lcd_draw_string>:
    3470:	e59f31ec 	ldr	r3, [pc, #492]	; 3664 <ev3_lcd_draw_string+0x1f4>
    3474:	e92d4ff0 	push	{r4, r5, r6, r7, r8, r9, sl, fp, lr}
    3478:	e08f3003 	add	r3, pc, r3
    347c:	e24dd04c 	sub	sp, sp, #76	; 0x4c
    3480:	e1a0c003 	mov	ip, r3
    3484:	e58d3020 	str	r3, [sp, #32]
    3488:	e59f31d8 	ldr	r3, [pc, #472]	; 3668 <ev3_lcd_draw_string+0x1f8>
    348c:	e1a05001 	mov	r5, r1
    3490:	e79c3003 	ldr	r3, [ip, r3]
    3494:	e1a06000 	mov	r6, r0
    3498:	e5d31000 	ldrb	r1, [r3]
    349c:	e593902c 	ldr	r9, [r3, #44]	; 0x2c
    34a0:	e0831101 	add	r1, r3, r1, lsl #2
    34a4:	e5918004 	ldr	r8, [r1, #4]
    34a8:	e1a0a002 	mov	sl, r2
    34ac:	e5983008 	ldr	r3, [r8, #8]
    34b0:	e353003f 	cmp	r3, #63	; 0x3f
    34b4:	9a000017 	bls	3518 <ev3_lcd_draw_string+0xa8>
    34b8:	e59d0020 	ldr	r0, [sp, #32]
    34bc:	e59f31a8 	ldr	r3, [pc, #424]	; 366c <ev3_lcd_draw_string+0x1fc>
    34c0:	e3a0b002 	mov	fp, #2
    34c4:	e58db028 	str	fp, [sp, #40]	; 0x28
    34c8:	e59f21a0 	ldr	r2, [pc, #416]	; 3670 <ev3_lcd_draw_string+0x200>
    34cc:	e7901003 	ldr	r1, [r0, r3]
    34d0:	e59f319c 	ldr	r3, [pc, #412]	; 3674 <ev3_lcd_draw_string+0x204>
    34d4:	e58d1030 	str	r1, [sp, #48]	; 0x30
    34d8:	e58d2034 	str	r2, [sp, #52]	; 0x34
    34dc:	e7903003 	ldr	r3, [r0, r3]
    34e0:	e3a00000 	mov	r0, #0
    34e4:	e58d3038 	str	r3, [sp, #56]	; 0x38
    34e8:	e1a02000 	mov	r2, r0
    34ec:	e1a03000 	mov	r3, r0
    34f0:	e1a04000 	mov	r4, r0
    34f4:	e28d1028 	add	r1, sp, #40	; 0x28
    34f8:	e3a0c001 	mov	ip, #1
    34fc:	e1a0700c 	mov	r7, ip
    3500:	ef000001 	svc	0x00000001
    3504:	e1500002 	cmp	r0, r2
    3508:	ba000052 	blt	3658 <ev3_lcd_draw_string+0x1e8>
    350c:	e3a03000 	mov	r3, #0
    3510:	e58d301c 	str	r3, [sp, #28]
    3514:	ea000009 	b	3540 <ev3_lcd_draw_string+0xd0>
    3518:	e5982010 	ldr	r2, [r8, #16]
    351c:	e0832002 	add	r2, r3, r2
    3520:	e352003f 	cmp	r2, #63	; 0x3f
    3524:	9affffe3 	bls	34b8 <ev3_lcd_draw_string+0x48>
    3528:	e598200c 	ldr	r2, [r8, #12]
    352c:	e263303f 	rsb	r3, r3, #63	; 0x3f
    3530:	e0833083 	add	r3, r3, r3, lsl #1
    3534:	e0923103 	adds	r3, r2, r3, lsl #2
    3538:	e58d301c 	str	r3, [sp, #28]
    353c:	0affffdd 	beq	34b8 <ev3_lcd_draw_string+0x48>
    3540:	e5d63000 	ldrb	r3, [r6]
    3544:	e3530000 	cmp	r3, #0
    3548:	0a00003f 	beq	364c <ev3_lcd_draw_string+0x1dc>
    354c:	e28d2028 	add	r2, sp, #40	; 0x28
    3550:	e2866001 	add	r6, r6, #1
    3554:	e58d2024 	str	r2, [sp, #36]	; 0x24
    3558:	e3a0bcff 	mov	fp, #65280	; 0xff00
    355c:	ea000019 	b	35c8 <ev3_lcd_draw_string+0x158>
    3560:	e5981010 	ldr	r1, [r8, #16]
    3564:	e0821001 	add	r1, r2, r1
    3568:	e1530001 	cmp	r3, r1
    356c:	2a00001a 	bcs	35dc <ev3_lcd_draw_string+0x16c>
    3570:	e598400c 	ldr	r4, [r8, #12]
    3574:	e0623003 	rsb	r3, r2, r3
    3578:	e0833083 	add	r3, r3, r3, lsl #1
    357c:	e0944103 	adds	r4, r4, r3, lsl #2
    3580:	e59d301c 	ldr	r3, [sp, #28]
    3584:	01a04003 	moveq	r4, r3
    3588:	e88d0420 	stm	sp, {r5, sl}
    358c:	e5943000 	ldr	r3, [r4]
    3590:	e3a01000 	mov	r1, #0
    3594:	e58d3008 	str	r3, [sp, #8]
    3598:	e5943004 	ldr	r3, [r4, #4]
    359c:	e1a02001 	mov	r2, r1
    35a0:	e58d300c 	str	r3, [sp, #12]
    35a4:	e58db010 	str	fp, [sp, #16]
    35a8:	e1a03009 	mov	r3, r9
    35ac:	e1a00004 	mov	r0, r4
    35b0:	ebfffe87 	bl	2fd4 <bitmap_bitblt>
    35b4:	e4d63001 	ldrb	r3, [r6], #1
    35b8:	e5942000 	ldr	r2, [r4]
    35bc:	e3530000 	cmp	r3, #0
    35c0:	e0855002 	add	r5, r5, r2
    35c4:	0a000020 	beq	364c <ev3_lcd_draw_string+0x1dc>
    35c8:	e3130080 	tst	r3, #128	; 0x80
    35cc:	1a000004 	bne	35e4 <ev3_lcd_draw_string+0x174>
    35d0:	e5982008 	ldr	r2, [r8, #8]
    35d4:	e1520003 	cmp	r2, r3
    35d8:	9affffe0 	bls	3560 <ev3_lcd_draw_string+0xf0>
    35dc:	e59d401c 	ldr	r4, [sp, #28]
    35e0:	eaffffe8 	b	3588 <ev3_lcd_draw_string+0x118>
    35e4:	e59d1020 	ldr	r1, [sp, #32]
    35e8:	e59f207c 	ldr	r2, [pc, #124]	; 366c <ev3_lcd_draw_string+0x1fc>
    35ec:	e3a03002 	mov	r3, #2
    35f0:	e58d3028 	str	r3, [sp, #40]	; 0x28
    35f4:	e59f007c 	ldr	r0, [pc, #124]	; 3678 <ev3_lcd_draw_string+0x208>
    35f8:	e7912002 	ldr	r2, [r1, r2]
    35fc:	e59f3078 	ldr	r3, [pc, #120]	; 367c <ev3_lcd_draw_string+0x20c>
    3600:	e58d0034 	str	r0, [sp, #52]	; 0x34
    3604:	e58d2030 	str	r2, [sp, #48]	; 0x30
    3608:	e7913003 	ldr	r3, [r1, r3]
    360c:	e3a00000 	mov	r0, #0
    3610:	e58d3038 	str	r3, [sp, #56]	; 0x38
    3614:	e1a02000 	mov	r2, r0
    3618:	e1a03000 	mov	r3, r0
    361c:	e1a04000 	mov	r4, r0
    3620:	e59d1024 	ldr	r1, [sp, #36]	; 0x24
    3624:	e3a0c001 	mov	ip, #1
    3628:	e1a0700c 	mov	r7, ip
    362c:	ef000001 	svc	0x00000001
    3630:	e1500002 	cmp	r0, r2
    3634:	aa000002 	bge	3644 <ev3_lcd_draw_string+0x1d4>
    3638:	e3a0c002 	mov	ip, #2
    363c:	e1a0700c 	mov	r7, ip
    3640:	ef000001 	svc	0x00000001
    3644:	e5563001 	ldrb	r3, [r6, #-1]
    3648:	eaffffe0 	b	35d0 <ev3_lcd_draw_string+0x160>
    364c:	e3a00000 	mov	r0, #0
    3650:	e28dd04c 	add	sp, sp, #76	; 0x4c
    3654:	e8bd8ff0 	pop	{r4, r5, r6, r7, r8, r9, sl, fp, pc}
    3658:	e1a0700b 	mov	r7, fp
    365c:	ef000001 	svc	0x00000001
    3660:	eaffffa9 	b	350c <ev3_lcd_draw_string+0x9c>
    3664:	00012b8c 	andeq	r2, r1, ip, lsl #23
    3668:	0000015c 	andeq	r0, r0, ip, asr r1
    366c:	00000138 	andeq	r0, r0, r8, lsr r1
    3670:	0000014b 	andeq	r0, r0, fp, asr #2
    3674:	0000013c 	andeq	r0, r0, ip, lsr r1
    3678:	00000153 	andeq	r0, r0, r3, asr r1
    367c:	00000140 	andeq	r0, r0, r0, asr #2

00003680 <ev3_lcd_fill_rect>:
    3680:	e92d4010 	push	{r4, lr}
    3684:	e59f4048 	ldr	r4, [pc, #72]	; 36d4 <ev3_lcd_fill_rect+0x54>
    3688:	e59fe048 	ldr	lr, [pc, #72]	; 36d8 <ev3_lcd_fill_rect+0x58>
    368c:	e08f4004 	add	r4, pc, r4
    3690:	e24dd018 	sub	sp, sp, #24
    3694:	e794e00e 	ldr	lr, [r4, lr]
    3698:	e5ddc020 	ldrb	ip, [sp, #32]
    369c:	e59ee02c 	ldr	lr, [lr, #44]	; 0x2c
    36a0:	e35c0001 	cmp	ip, #1
    36a4:	03a0c0ff 	moveq	ip, #255	; 0xff
    36a8:	13a0c000 	movne	ip, #0
    36ac:	e58d0000 	str	r0, [sp]
    36b0:	e3a00000 	mov	r0, #0
    36b4:	e98d100e 	stmib	sp, {r1, r2, r3, ip}
    36b8:	e1a01000 	mov	r1, r0
    36bc:	e1a02000 	mov	r2, r0
    36c0:	e1a0300e 	mov	r3, lr
    36c4:	ebfffe42 	bl	2fd4 <bitmap_bitblt>
    36c8:	e3a00000 	mov	r0, #0
    36cc:	e28dd018 	add	sp, sp, #24
    36d0:	e8bd8010 	pop	{r4, pc}
    36d4:	00012978 	andeq	r2, r1, r8, ror r9
    36d8:	0000015c 	andeq	r0, r0, ip, asr r1

000036dc <ev3_image_load>:
    36dc:	e59fc2f4 	ldr	ip, [pc, #756]	; 39d8 <ev3_image_load+0x2fc>
    36e0:	e3500000 	cmp	r0, #0
    36e4:	e92d4ff0 	push	{r4, r5, r6, r7, r8, r9, sl, fp, lr}
    36e8:	e08fc00c 	add	ip, pc, ip
    36ec:	e24dd03c 	sub	sp, sp, #60	; 0x3c
    36f0:	e1a06001 	mov	r6, r1
    36f4:	0a000084 	beq	390c <ev3_image_load+0x230>
    36f8:	e5905000 	ldr	r5, [r0]
    36fc:	e3550000 	cmp	r5, #0
    3700:	13510000 	cmpne	r1, #0
    3704:	0a000080 	beq	390c <ev3_image_load+0x230>
    3708:	e5901004 	ldr	r1, [r0, #4]
    370c:	e3510011 	cmp	r1, #17
    3710:	9a0000ae 	bls	39d0 <ev3_image_load+0x2f4>
    3714:	e5d5200e 	ldrb	r2, [r5, #14]
    3718:	e5d5e00f 	ldrb	lr, [r5, #15]
    371c:	e5d53010 	ldrb	r3, [r5, #16]
    3720:	e5d50011 	ldrb	r0, [r5, #17]
    3724:	e182240e 	orr	r2, r2, lr, lsl #8
    3728:	e1823803 	orr	r3, r2, r3, lsl #16
    372c:	e1833c00 	orr	r3, r3, r0, lsl #24
    3730:	e3530028 	cmp	r3, #40	; 0x28
    3734:	1a00007c 	bne	392c <ev3_image_load+0x250>
    3738:	e3510035 	cmp	r1, #53	; 0x35
    373c:	9a0000a3 	bls	39d0 <ev3_image_load+0x2f4>
    3740:	e5d52012 	ldrb	r2, [r5, #18]
    3744:	e5d53013 	ldrb	r3, [r5, #19]
    3748:	e5d54014 	ldrb	r4, [r5, #20]
    374c:	e5d50015 	ldrb	r0, [r5, #21]
    3750:	e1823403 	orr	r3, r2, r3, lsl #8
    3754:	e1833804 	orr	r3, r3, r4, lsl #16
    3758:	e1934c00 	orrs	r4, r3, r0, lsl #24
    375c:	4a000072 	bmi	392c <ev3_image_load+0x250>
    3760:	e5d52016 	ldrb	r2, [r5, #22]
    3764:	e5d53017 	ldrb	r3, [r5, #23]
    3768:	e5d5e018 	ldrb	lr, [r5, #24]
    376c:	e5d50019 	ldrb	r0, [r5, #25]
    3770:	e1823403 	orr	r3, r2, r3, lsl #8
    3774:	e183380e 	orr	r3, r3, lr, lsl #16
    3778:	e1933c00 	orrs	r3, r3, r0, lsl #24
    377c:	e1a09003 	mov	r9, r3
    3780:	e58d3008 	str	r3, [sp, #8]
    3784:	4a000068 	bmi	392c <ev3_image_load+0x250>
    3788:	e5d5301c 	ldrb	r3, [r5, #28]
    378c:	e5d5201d 	ldrb	r2, [r5, #29]
    3790:	e1833402 	orr	r3, r3, r2, lsl #8
    3794:	e3530001 	cmp	r3, #1
    3798:	1a000063 	bne	392c <ev3_image_load+0x250>
    379c:	e5d5201e 	ldrb	r2, [r5, #30]
    37a0:	e5d5301f 	ldrb	r3, [r5, #31]
    37a4:	e5d5e020 	ldrb	lr, [r5, #32]
    37a8:	e5d50021 	ldrb	r0, [r5, #33]	; 0x21
    37ac:	e1823403 	orr	r3, r2, r3, lsl #8
    37b0:	e183380e 	orr	r3, r3, lr, lsl #16
    37b4:	e1933c00 	orrs	r3, r3, r0, lsl #24
    37b8:	1a00005b 	bne	392c <ev3_image_load+0x250>
    37bc:	e284701f 	add	r7, r4, #31
    37c0:	e5d5200a 	ldrb	r2, [r5, #10]
    37c4:	e5d5300b 	ldrb	r3, [r5, #11]
    37c8:	e5d5800c 	ldrb	r8, [r5, #12]
    37cc:	e1a072c7 	asr	r7, r7, #5
    37d0:	e1a07107 	lsl	r7, r7, #2
    37d4:	e5d5000d 	ldrb	r0, [r5, #13]
    37d8:	e0090997 	mul	r9, r7, r9
    37dc:	e1823403 	orr	r3, r2, r3, lsl #8
    37e0:	e1833808 	orr	r3, r3, r8, lsl #16
    37e4:	e1838c00 	orr	r8, r3, r0, lsl #24
    37e8:	e0893008 	add	r3, r9, r8
    37ec:	e1510003 	cmp	r1, r3
    37f0:	3a000076 	bcc	39d0 <ev3_image_load+0x2f4>
    37f4:	e59fa1e0 	ldr	sl, [pc, #480]	; 39dc <ev3_image_load+0x300>
    37f8:	e2843002 	add	r3, r4, #2
    37fc:	e0c2139a 	smull	r1, r2, sl, r3
    3800:	e59d0008 	ldr	r0, [sp, #8]
    3804:	e0423fc3 	sub	r3, r2, r3, asr #31
    3808:	e0000093 	mul	r0, r3, r0
    380c:	e58d3004 	str	r3, [sp, #4]
    3810:	eb00161d 	bl	908c <malloc>
    3814:	e3500000 	cmp	r0, #0
    3818:	03e05020 	mvneq	r5, #32
    381c:	0a00003b 	beq	3910 <ev3_image_load+0x234>
    3820:	e59d2008 	ldr	r2, [sp, #8]
    3824:	e3520000 	cmp	r2, #0
    3828:	0a000060 	beq	39b0 <ev3_image_load+0x2d4>
    382c:	e0673009 	rsb	r3, r7, r9
    3830:	e0833008 	add	r3, r3, r8
    3834:	e3a09000 	mov	r9, #0
    3838:	e2671000 	rsb	r1, r7, #0
    383c:	e1a0c00a 	mov	ip, sl
    3840:	e1a08002 	mov	r8, r2
    3844:	e1a0a009 	mov	sl, r9
    3848:	e1a07003 	mov	r7, r3
    384c:	e58d100c 	str	r1, [sp, #12]
    3850:	e58d5010 	str	r5, [sp, #16]
    3854:	e58d6014 	str	r6, [sp, #20]
    3858:	e3540000 	cmp	r4, #0
    385c:	0a00004b 	beq	3990 <ev3_image_load+0x2b4>
    3860:	e59d2010 	ldr	r2, [sp, #16]
    3864:	e158000a 	cmp	r8, sl
    3868:	e3a01000 	mov	r1, #0
    386c:	e1a03001 	mov	r3, r1
    3870:	c3a0e000 	movgt	lr, #0
    3874:	d3a0e001 	movle	lr, #1
    3878:	e0826007 	add	r6, r2, r7
    387c:	e58d7000 	str	r7, [sp]
    3880:	ea000008 	b	38a8 <ev3_image_load+0x1cc>
    3884:	e7d02005 	ldrb	r2, [r0, r5]
    3888:	e3a07003 	mov	r7, #3
    388c:	e1c2bb17 	bic	fp, r2, r7, lsl fp
    3890:	e7c0b005 	strb	fp, [r0, r5]
    3894:	e2833001 	add	r3, r3, #1
    3898:	e1a01081 	lsl	r1, r1, #1
    389c:	e1530004 	cmp	r3, r4
    38a0:	e20110ff 	and	r1, r1, #255	; 0xff
    38a4:	0a000038 	beq	398c <ev3_image_load+0x2b0>
    38a8:	e0c2539c 	smull	r5, r2, ip, r3
    38ac:	e3130007 	tst	r3, #7
    38b0:	07d611c3 	ldrbeq	r1, [r6, r3, asr #3]
    38b4:	e1540003 	cmp	r4, r3
    38b8:	c1a0500e 	movgt	r5, lr
    38bc:	d38e5001 	orrle	r5, lr, #1
    38c0:	e3550000 	cmp	r5, #0
    38c4:	e0422fc3 	sub	r2, r2, r3, asr #31
    38c8:	1afffff1 	bne	3894 <ev3_image_load+0x1b8>
    38cc:	e0825082 	add	r5, r2, r2, lsl #1
    38d0:	e0655003 	rsb	r5, r5, r3
    38d4:	e2655002 	rsb	r5, r5, #2
    38d8:	e3110080 	tst	r1, #128	; 0x80
    38dc:	e085b085 	add	fp, r5, r5, lsl #1
    38e0:	e0895002 	add	r5, r9, r2
    38e4:	1affffe6 	bne	3884 <ev3_image_load+0x1a8>
    38e8:	e0822082 	add	r2, r2, r2, lsl #1
    38ec:	e7d0b005 	ldrb	fp, [r0, r5]
    38f0:	e0622003 	rsb	r2, r2, r3
    38f4:	e2622002 	rsb	r2, r2, #2
    38f8:	e0822082 	add	r2, r2, r2, lsl #1
    38fc:	e3a07003 	mov	r7, #3
    3900:	e18b2217 	orr	r2, fp, r7, lsl r2
    3904:	e7c02005 	strb	r2, [r0, r5]
    3908:	eaffffe1 	b	3894 <ev3_image_load+0x1b8>
    390c:	e3e05010 	mvn	r5, #16
    3910:	e3a03000 	mov	r3, #0
    3914:	e1a00005 	mov	r0, r5
    3918:	e5863004 	str	r3, [r6, #4]
    391c:	e5863000 	str	r3, [r6]
    3920:	e5863008 	str	r3, [r6, #8]
    3924:	e28dd03c 	add	sp, sp, #60	; 0x3c
    3928:	e8bd8ff0 	pop	{r4, r5, r6, r7, r8, r9, sl, fp, pc}
    392c:	e3e05008 	mvn	r5, #8
    3930:	e59f30a8 	ldr	r3, [pc, #168]	; 39e0 <ev3_image_load+0x304>
    3934:	e3a08002 	mov	r8, #2
    3938:	e58d8018 	str	r8, [sp, #24]
    393c:	e59f20a0 	ldr	r2, [pc, #160]	; 39e4 <ev3_image_load+0x308>
    3940:	e79c1003 	ldr	r1, [ip, r3]
    3944:	e59f309c 	ldr	r3, [pc, #156]	; 39e8 <ev3_image_load+0x30c>
    3948:	e58d1020 	str	r1, [sp, #32]
    394c:	e58d2024 	str	r2, [sp, #36]	; 0x24
    3950:	e79c3003 	ldr	r3, [ip, r3]
    3954:	e3a00000 	mov	r0, #0
    3958:	e58d3028 	str	r3, [sp, #40]	; 0x28
    395c:	e1a02000 	mov	r2, r0
    3960:	e1a03000 	mov	r3, r0
    3964:	e1a04000 	mov	r4, r0
    3968:	e28d1018 	add	r1, sp, #24
    396c:	e3a0c001 	mov	ip, #1
    3970:	e1a0700c 	mov	r7, ip
    3974:	ef000001 	svc	0x00000001
    3978:	e1500002 	cmp	r0, r2
    397c:	aaffffe3 	bge	3910 <ev3_image_load+0x234>
    3980:	e1a07008 	mov	r7, r8
    3984:	ef000001 	svc	0x00000001
    3988:	eaffffe0 	b	3910 <ev3_image_load+0x234>
    398c:	e59d7000 	ldr	r7, [sp]
    3990:	e59d3004 	ldr	r3, [sp, #4]
    3994:	e28aa001 	add	sl, sl, #1
    3998:	e0899003 	add	r9, r9, r3
    399c:	e59d300c 	ldr	r3, [sp, #12]
    39a0:	e15a0008 	cmp	sl, r8
    39a4:	e0877003 	add	r7, r7, r3
    39a8:	1affffaa 	bne	3858 <ev3_image_load+0x17c>
    39ac:	e59d6014 	ldr	r6, [sp, #20]
    39b0:	e59d3008 	ldr	r3, [sp, #8]
    39b4:	e3a05000 	mov	r5, #0
    39b8:	e5860008 	str	r0, [r6, #8]
    39bc:	e1a00005 	mov	r0, r5
    39c0:	e5863004 	str	r3, [r6, #4]
    39c4:	e5864000 	str	r4, [r6]
    39c8:	e28dd03c 	add	sp, sp, #60	; 0x3c
    39cc:	e8bd8ff0 	pop	{r4, r5, r6, r7, r8, r9, sl, fp, pc}
    39d0:	e3e05028 	mvn	r5, #40	; 0x28
    39d4:	eaffffd5 	b	3930 <ev3_image_load+0x254>
    39d8:	0001291c 	andeq	r2, r1, ip, lsl r9
    39dc:	55555556 	ldrbpl	r5, [r5, #-1366]	; 0xfffffaaa
    39e0:	00000138 	andeq	r0, r0, r8, lsr r1
    39e4:	000001ab 	andeq	r0, r0, fp, lsr #3
    39e8:	00000144 	andeq	r0, r0, r4, asr #2

000039ec <ev3_image_free>:
    39ec:	e3500000 	cmp	r0, #0
    39f0:	0a000009 	beq	3a1c <ev3_image_free+0x30>
    39f4:	e92d4010 	push	{r4, lr}
    39f8:	e1a04000 	mov	r4, r0
    39fc:	e5900008 	ldr	r0, [r0, #8]
    3a00:	eb0015a9 	bl	90ac <free>
    3a04:	e3a03000 	mov	r3, #0
    3a08:	e5843008 	str	r3, [r4, #8]
    3a0c:	e5843000 	str	r3, [r4]
    3a10:	e5843004 	str	r3, [r4, #4]
    3a14:	e3e00010 	mvn	r0, #16
    3a18:	e8bd8010 	pop	{r4, pc}
    3a1c:	e3e00010 	mvn	r0, #16
    3a20:	e12fff1e 	bx	lr

00003a24 <ev3_lcd_draw_image>:
    3a24:	e59fc080 	ldr	ip, [pc, #128]	; 3aac <ev3_lcd_draw_image+0x88>
    3a28:	e3500000 	cmp	r0, #0
    3a2c:	e08fc00c 	add	ip, pc, ip
    3a30:	0a00001b 	beq	3aa4 <ev3_lcd_draw_image+0x80>
    3a34:	e92d4030 	push	{r4, r5, lr}
    3a38:	e590e008 	ldr	lr, [r0, #8]
    3a3c:	e24dd02c 	sub	sp, sp, #44	; 0x2c
    3a40:	e35e0000 	cmp	lr, #0
    3a44:	0a000014 	beq	3a9c <ev3_lcd_draw_image+0x78>
    3a48:	e8900011 	ldm	r0, {r0, r4}
    3a4c:	e59f305c 	ldr	r3, [pc, #92]	; 3ab0 <ev3_lcd_draw_image+0x8c>
    3a50:	e58d001c 	str	r0, [sp, #28]
    3a54:	e58de024 	str	lr, [sp, #36]	; 0x24
    3a58:	e58d4020 	str	r4, [sp, #32]
    3a5c:	e79c3003 	ldr	r3, [ip, r3]
    3a60:	e1a05001 	mov	r5, r1
    3a64:	e3a0ccff 	mov	ip, #65280	; 0xff00
    3a68:	e3a01000 	mov	r1, #0
    3a6c:	e593302c 	ldr	r3, [r3, #44]	; 0x2c
    3a70:	e58d0008 	str	r0, [sp, #8]
    3a74:	e58d2004 	str	r2, [sp, #4]
    3a78:	e28d001c 	add	r0, sp, #28
    3a7c:	e58d400c 	str	r4, [sp, #12]
    3a80:	e58d5000 	str	r5, [sp]
    3a84:	e58dc010 	str	ip, [sp, #16]
    3a88:	e1a02001 	mov	r2, r1
    3a8c:	ebfffd50 	bl	2fd4 <bitmap_bitblt>
    3a90:	e3a00000 	mov	r0, #0
    3a94:	e28dd02c 	add	sp, sp, #44	; 0x2c
    3a98:	e8bd8030 	pop	{r4, r5, pc}
    3a9c:	e3e00010 	mvn	r0, #16
    3aa0:	eafffffb 	b	3a94 <ev3_lcd_draw_image+0x70>
    3aa4:	e3e00010 	mvn	r0, #16
    3aa8:	e12fff1e 	bx	lr
    3aac:	000125d8 	ldrdeq	r2, [r1], -r8
    3ab0:	0000015c 	andeq	r0, r0, ip, asr r1

00003ab4 <ev3_lcd_draw_line>:
    3ab4:	e92d4ff0 	push	{r4, r5, r6, r7, r8, r9, sl, fp, lr}
    3ab8:	e1520000 	cmp	r2, r0
    3abc:	11530001 	cmpne	r3, r1
    3ac0:	e1a0e001 	mov	lr, r1
    3ac4:	e0615003 	rsb	r5, r1, r3
    3ac8:	e59f1258 	ldr	r1, [pc, #600]	; 3d28 <ev3_lcd_draw_line+0x274>
    3acc:	e24dd024 	sub	sp, sp, #36	; 0x24
    3ad0:	e0606002 	rsb	r6, r0, r2
    3ad4:	e08f1001 	add	r1, pc, r1
    3ad8:	1a000016 	bne	3b38 <ev3_lcd_draw_line+0x84>
    3adc:	e3560000 	cmp	r6, #0
    3ae0:	d1a00002 	movle	r0, r2
    3ae4:	d2666000 	rsble	r6, r6, #0
    3ae8:	e3550000 	cmp	r5, #0
    3aec:	d1a0e003 	movle	lr, r3
    3af0:	e59f3234 	ldr	r3, [pc, #564]	; 3d2c <ev3_lcd_draw_line+0x278>
    3af4:	d2655000 	rsble	r5, r5, #0
    3af8:	e7913003 	ldr	r3, [r1, r3]
    3afc:	e2866001 	add	r6, r6, #1
    3b00:	e2855001 	add	r5, r5, #1
    3b04:	e3a0c0ff 	mov	ip, #255	; 0xff
    3b08:	e593302c 	ldr	r3, [r3, #44]	; 0x2c
    3b0c:	e1a01000 	mov	r1, r0
    3b10:	e88d4001 	stm	sp, {r0, lr}
    3b14:	e58d6008 	str	r6, [sp, #8]
    3b18:	e58d500c 	str	r5, [sp, #12]
    3b1c:	e1a0200e 	mov	r2, lr
    3b20:	e58dc010 	str	ip, [sp, #16]
    3b24:	e3a00000 	mov	r0, #0
    3b28:	ebfffd29 	bl	2fd4 <bitmap_bitblt>
    3b2c:	e3a00000 	mov	r0, #0
    3b30:	e28dd024 	add	sp, sp, #36	; 0x24
    3b34:	e8bd8ff0 	pop	{r4, r5, r6, r7, r8, r9, sl, fp, pc}
    3b38:	e3550000 	cmp	r5, #0
    3b3c:	b2655000 	rsblt	r5, r5, #0
    3b40:	b3e08000 	mvnlt	r8, #0
    3b44:	a3a08001 	movge	r8, #1
    3b48:	e3560000 	cmp	r6, #0
    3b4c:	b3e0c000 	mvnlt	ip, #0
    3b50:	a3a0c001 	movge	ip, #1
    3b54:	e58dc018 	str	ip, [sp, #24]
    3b58:	e59fc1cc 	ldr	ip, [pc, #460]	; 3d2c <ev3_lcd_draw_line+0x278>
    3b5c:	b2666000 	rsblt	r6, r6, #0
    3b60:	e791100c 	ldr	r1, [r1, ip]
    3b64:	e3500000 	cmp	r0, #0
    3b68:	e1a05085 	lsl	r5, r5, #1
    3b6c:	e1a06086 	lsl	r6, r6, #1
    3b70:	e591702c 	ldr	r7, [r1, #44]	; 0x2c
    3b74:	ba000018 	blt	3bdc <ev3_lcd_draw_line+0x128>
    3b78:	e5971000 	ldr	r1, [r7]
    3b7c:	e1500001 	cmp	r0, r1
    3b80:	b3a0c000 	movlt	ip, #0
    3b84:	a3a0c001 	movge	ip, #1
    3b88:	e19ccfae 	orrs	ip, ip, lr, lsr #31
    3b8c:	1a000012 	bne	3bdc <ev3_lcd_draw_line+0x128>
    3b90:	e597c004 	ldr	ip, [r7, #4]
    3b94:	e15e000c 	cmp	lr, ip
    3b98:	aa00000f 	bge	3bdc <ev3_lcd_draw_line+0x128>
    3b9c:	e59f418c 	ldr	r4, [pc, #396]	; 3d30 <ev3_lcd_draw_line+0x27c>
    3ba0:	e281c002 	add	ip, r1, #2
    3ba4:	e0c19094 	smull	r9, r1, r4, r0
    3ba8:	e0c4949c 	smull	r9, r4, ip, r4
    3bac:	e0411fc0 	sub	r1, r1, r0, asr #31
    3bb0:	e044cfcc 	sub	ip, r4, ip, asr #31
    3bb4:	e02c1c9e 	mla	ip, lr, ip, r1
    3bb8:	e5974008 	ldr	r4, [r7, #8]
    3bbc:	e0811081 	add	r1, r1, r1, lsl #1
    3bc0:	e7d4900c 	ldrb	r9, [r4, ip]
    3bc4:	e0611000 	rsb	r1, r1, r0
    3bc8:	e2611002 	rsb	r1, r1, #2
    3bcc:	e0811081 	add	r1, r1, r1, lsl #1
    3bd0:	e3a0a003 	mov	sl, #3
    3bd4:	e189111a 	orr	r1, r9, sl, lsl r1
    3bd8:	e7c4100c 	strb	r1, [r4, ip]
    3bdc:	e1550006 	cmp	r5, r6
    3be0:	aa000028 	bge	3c88 <ev3_lcd_draw_line+0x1d4>
    3be4:	e1500002 	cmp	r0, r2
    3be8:	e04590c6 	sub	r9, r5, r6, asr #1
    3bec:	0affffce 	beq	3b2c <ev3_lcd_draw_line+0x78>
    3bf0:	e58d601c 	str	r6, [sp, #28]
    3bf4:	e59fb134 	ldr	fp, [pc, #308]	; 3d30 <ev3_lcd_draw_line+0x27c>
    3bf8:	e59d6018 	ldr	r6, [sp, #24]
    3bfc:	e3590000 	cmp	r9, #0
    3c00:	a59d301c 	ldrge	r3, [sp, #28]
    3c04:	a08ee008 	addge	lr, lr, r8
    3c08:	a0639009 	rsbge	r9, r3, r9
    3c0c:	e0900006 	adds	r0, r0, r6
    3c10:	e0899005 	add	r9, r9, r5
    3c14:	4a000016 	bmi	3c74 <ev3_lcd_draw_line+0x1c0>
    3c18:	e5974000 	ldr	r4, [r7]
    3c1c:	e0c1309b 	smull	r3, r1, fp, r0
    3c20:	e284a002 	add	sl, r4, #2
    3c24:	e0cc3a9b 	smull	r3, ip, fp, sl
    3c28:	e0411fc0 	sub	r1, r1, r0, asr #31
    3c2c:	e1540000 	cmp	r4, r0
    3c30:	e0813081 	add	r3, r1, r1, lsl #1
    3c34:	e04ccfca 	sub	ip, ip, sl, asr #31
    3c38:	e0633000 	rsb	r3, r3, r0
    3c3c:	c3a04000 	movgt	r4, #0
    3c40:	d3a04001 	movle	r4, #1
    3c44:	e0211e9c 	mla	r1, ip, lr, r1
    3c48:	e2633002 	rsb	r3, r3, #2
    3c4c:	e194cfae 	orrs	ip, r4, lr, lsr #31
    3c50:	e0833083 	add	r3, r3, r3, lsl #1
    3c54:	1a000006 	bne	3c74 <ev3_lcd_draw_line+0x1c0>
    3c58:	e597c004 	ldr	ip, [r7, #4]
    3c5c:	e15e000c 	cmp	lr, ip
    3c60:	b597c008 	ldrlt	ip, [r7, #8]
    3c64:	b3a0a003 	movlt	sl, #3
    3c68:	b7dc4001 	ldrblt	r4, [ip, r1]
    3c6c:	b184331a 	orrlt	r3, r4, sl, lsl r3
    3c70:	b7cc3001 	strblt	r3, [ip, r1]
    3c74:	e1520000 	cmp	r2, r0
    3c78:	1affffdf 	bne	3bfc <ev3_lcd_draw_line+0x148>
    3c7c:	e3a00000 	mov	r0, #0
    3c80:	e28dd024 	add	sp, sp, #36	; 0x24
    3c84:	e8bd8ff0 	pop	{r4, r5, r6, r7, r8, r9, sl, fp, pc}
    3c88:	e15e0003 	cmp	lr, r3
    3c8c:	e04690c5 	sub	r9, r6, r5, asr #1
    3c90:	0affffa5 	beq	3b2c <ev3_lcd_draw_line+0x78>
    3c94:	e59fb094 	ldr	fp, [pc, #148]	; 3d30 <ev3_lcd_draw_line+0x27c>
    3c98:	e3590000 	cmp	r9, #0
    3c9c:	a59d2018 	ldrge	r2, [sp, #24]
    3ca0:	a0659009 	rsbge	r9, r5, r9
    3ca4:	a0800002 	addge	r0, r0, r2
    3ca8:	e3500000 	cmp	r0, #0
    3cac:	e08ee008 	add	lr, lr, r8
    3cb0:	e0899006 	add	r9, r9, r6
    3cb4:	ba000016 	blt	3d14 <ev3_lcd_draw_line+0x260>
    3cb8:	e5974000 	ldr	r4, [r7]
    3cbc:	e0c1209b 	smull	r2, r1, fp, r0
    3cc0:	e284a002 	add	sl, r4, #2
    3cc4:	e0cc2a9b 	smull	r2, ip, fp, sl
    3cc8:	e0411fc0 	sub	r1, r1, r0, asr #31
    3ccc:	e1500004 	cmp	r0, r4
    3cd0:	e0812081 	add	r2, r1, r1, lsl #1
    3cd4:	e04ccfca 	sub	ip, ip, sl, asr #31
    3cd8:	e0622000 	rsb	r2, r2, r0
    3cdc:	b3a04000 	movlt	r4, #0
    3ce0:	a3a04001 	movge	r4, #1
    3ce4:	e0211e9c 	mla	r1, ip, lr, r1
    3ce8:	e2622002 	rsb	r2, r2, #2
    3cec:	e194cfae 	orrs	ip, r4, lr, lsr #31
    3cf0:	e0822082 	add	r2, r2, r2, lsl #1
    3cf4:	1a000006 	bne	3d14 <ev3_lcd_draw_line+0x260>
    3cf8:	e597c004 	ldr	ip, [r7, #4]
    3cfc:	e15e000c 	cmp	lr, ip
    3d00:	b597c008 	ldrlt	ip, [r7, #8]
    3d04:	b3a0a003 	movlt	sl, #3
    3d08:	b7dc4001 	ldrblt	r4, [ip, r1]
    3d0c:	b184221a 	orrlt	r2, r4, sl, lsl r2
    3d10:	b7cc2001 	strblt	r2, [ip, r1]
    3d14:	e153000e 	cmp	r3, lr
    3d18:	1affffde 	bne	3c98 <ev3_lcd_draw_line+0x1e4>
    3d1c:	e3a00000 	mov	r0, #0
    3d20:	e28dd024 	add	sp, sp, #36	; 0x24
    3d24:	e8bd8ff0 	pop	{r4, r5, r6, r7, r8, r9, sl, fp, pc}
    3d28:	00012530 	andeq	r2, r1, r0, lsr r5
    3d2c:	0000015c 	andeq	r0, r0, ip, asr r1
    3d30:	55555556 	ldrbpl	r5, [r5, #-1366]	; 0xfffffaaa

00003d34 <_initialize_ev3api_lcd>:
    3d34:	e92d41f0 	push	{r4, r5, r6, r7, r8, lr}
    3d38:	e59f51c0 	ldr	r5, [pc, #448]	; 3f00 <_initialize_ev3api_lcd+0x1cc>
    3d3c:	e59f31c0 	ldr	r3, [pc, #448]	; 3f04 <_initialize_ev3api_lcd+0x1d0>
    3d40:	e08f5005 	add	r5, pc, r5
    3d44:	e795c003 	ldr	ip, [r5, r3]
    3d48:	e24dd020 	sub	sp, sp, #32
    3d4c:	e59c302c 	ldr	r3, [ip, #44]	; 0x2c
    3d50:	e3530000 	cmp	r3, #0
    3d54:	0a000013 	beq	3da8 <_initialize_ev3api_lcd+0x74>
    3d58:	e59f21a8 	ldr	r2, [pc, #424]	; 3f08 <_initialize_ev3api_lcd+0x1d4>
    3d5c:	e3a06002 	mov	r6, #2
    3d60:	e58d6000 	str	r6, [sp]
    3d64:	e59f31a0 	ldr	r3, [pc, #416]	; 3f0c <_initialize_ev3api_lcd+0x1d8>
    3d68:	e7951002 	ldr	r1, [r5, r2]
    3d6c:	e3a020c7 	mov	r2, #199	; 0xc7
    3d70:	e58d1008 	str	r1, [sp, #8]
    3d74:	e58d200c 	str	r2, [sp, #12]
    3d78:	e7953003 	ldr	r3, [r5, r3]
    3d7c:	e3a00000 	mov	r0, #0
    3d80:	e58d3010 	str	r3, [sp, #16]
    3d84:	e1a02000 	mov	r2, r0
    3d88:	e1a03000 	mov	r3, r0
    3d8c:	e1a04000 	mov	r4, r0
    3d90:	e1a0100d 	mov	r1, sp
    3d94:	e3a08001 	mov	r8, #1
    3d98:	e1a07008 	mov	r7, r8
    3d9c:	ef000001 	svc	0x00000001
    3da0:	e1500002 	cmp	r0, r2
    3da4:	ba00000e 	blt	3de4 <_initialize_ev3api_lcd+0xb0>
    3da8:	e59f3160 	ldr	r3, [pc, #352]	; 3f10 <_initialize_ev3api_lcd+0x1dc>
    3dac:	e7953003 	ldr	r3, [r5, r3]
    3db0:	e2830018 	add	r0, r3, #24
    3db4:	e890000d 	ldm	r0, {r0, r2, r3}
    3db8:	e3500000 	cmp	r0, #0
    3dbc:	e58c002c 	str	r0, [ip, #44]	; 0x2c
    3dc0:	e98c000c 	stmib	ip, {r2, r3}
    3dc4:	0a00001f 	beq	3e48 <_initialize_ev3api_lcd+0x114>
    3dc8:	e3520000 	cmp	r2, #0
    3dcc:	0a000032 	beq	3e9c <_initialize_ev3api_lcd+0x168>
    3dd0:	e59c0008 	ldr	r0, [ip, #8]
    3dd4:	e3500000 	cmp	r0, #0
    3dd8:	0a000004 	beq	3df0 <_initialize_ev3api_lcd+0xbc>
    3ddc:	e28dd020 	add	sp, sp, #32
    3de0:	e8bd81f0 	pop	{r4, r5, r6, r7, r8, pc}
    3de4:	e1a07006 	mov	r7, r6
    3de8:	ef000001 	svc	0x00000001
    3dec:	eaffffed 	b	3da8 <_initialize_ev3api_lcd+0x74>
    3df0:	e59f2110 	ldr	r2, [pc, #272]	; 3f08 <_initialize_ev3api_lcd+0x1d4>
    3df4:	e3a0c002 	mov	ip, #2
    3df8:	e58dc000 	str	ip, [sp]
    3dfc:	e59f3110 	ldr	r3, [pc, #272]	; 3f14 <_initialize_ev3api_lcd+0x1e0>
    3e00:	e7951002 	ldr	r1, [r5, r2]
    3e04:	e3a020cd 	mov	r2, #205	; 0xcd
    3e08:	e58d1008 	str	r1, [sp, #8]
    3e0c:	e58d200c 	str	r2, [sp, #12]
    3e10:	e7953003 	ldr	r3, [r5, r3]
    3e14:	e1a0100d 	mov	r1, sp
    3e18:	e58d3010 	str	r3, [sp, #16]
    3e1c:	e1a02000 	mov	r2, r0
    3e20:	e1a03000 	mov	r3, r0
    3e24:	e1a04000 	mov	r4, r0
    3e28:	e3a05001 	mov	r5, #1
    3e2c:	e1a07005 	mov	r7, r5
    3e30:	ef000001 	svc	0x00000001
    3e34:	e3500000 	cmp	r0, #0
    3e38:	aaffffe7 	bge	3ddc <_initialize_ev3api_lcd+0xa8>
    3e3c:	e1a0700c 	mov	r7, ip
    3e40:	ef000001 	svc	0x00000001
    3e44:	eaffffe4 	b	3ddc <_initialize_ev3api_lcd+0xa8>
    3e48:	e59f20b8 	ldr	r2, [pc, #184]	; 3f08 <_initialize_ev3api_lcd+0x1d4>
    3e4c:	e3a06002 	mov	r6, #2
    3e50:	e58d6000 	str	r6, [sp]
    3e54:	e59f30bc 	ldr	r3, [pc, #188]	; 3f18 <_initialize_ev3api_lcd+0x1e4>
    3e58:	e7951002 	ldr	r1, [r5, r2]
    3e5c:	e3a020cb 	mov	r2, #203	; 0xcb
    3e60:	e58d1008 	str	r1, [sp, #8]
    3e64:	e58d200c 	str	r2, [sp, #12]
    3e68:	e7953003 	ldr	r3, [r5, r3]
    3e6c:	e1a0100d 	mov	r1, sp
    3e70:	e58d3010 	str	r3, [sp, #16]
    3e74:	e1a02000 	mov	r2, r0
    3e78:	e1a03000 	mov	r3, r0
    3e7c:	e1a04000 	mov	r4, r0
    3e80:	e3a08001 	mov	r8, #1
    3e84:	e1a07008 	mov	r7, r8
    3e88:	ef000001 	svc	0x00000001
    3e8c:	e3500000 	cmp	r0, #0
    3e90:	ba000017 	blt	3ef4 <_initialize_ev3api_lcd+0x1c0>
    3e94:	e59c2004 	ldr	r2, [ip, #4]
    3e98:	eaffffca 	b	3dc8 <_initialize_ev3api_lcd+0x94>
    3e9c:	e59f1064 	ldr	r1, [pc, #100]	; 3f08 <_initialize_ev3api_lcd+0x1d4>
    3ea0:	e3a06002 	mov	r6, #2
    3ea4:	e58d6000 	str	r6, [sp]
    3ea8:	e59f306c 	ldr	r3, [pc, #108]	; 3f1c <_initialize_ev3api_lcd+0x1e8>
    3eac:	e7950001 	ldr	r0, [r5, r1]
    3eb0:	e3a010cc 	mov	r1, #204	; 0xcc
    3eb4:	e58d0008 	str	r0, [sp, #8]
    3eb8:	e58d100c 	str	r1, [sp, #12]
    3ebc:	e7953003 	ldr	r3, [r5, r3]
    3ec0:	e1a00002 	mov	r0, r2
    3ec4:	e58d3010 	str	r3, [sp, #16]
    3ec8:	e1a0100d 	mov	r1, sp
    3ecc:	e1a03000 	mov	r3, r0
    3ed0:	e1a04000 	mov	r4, r0
    3ed4:	e3a08001 	mov	r8, #1
    3ed8:	e1a07008 	mov	r7, r8
    3edc:	ef000001 	svc	0x00000001
    3ee0:	e3500000 	cmp	r0, #0
    3ee4:	aaffffb9 	bge	3dd0 <_initialize_ev3api_lcd+0x9c>
    3ee8:	e1a07006 	mov	r7, r6
    3eec:	ef000001 	svc	0x00000001
    3ef0:	eaffffb6 	b	3dd0 <_initialize_ev3api_lcd+0x9c>
    3ef4:	e1a07006 	mov	r7, r6
    3ef8:	ef000001 	svc	0x00000001
    3efc:	eaffffe4 	b	3e94 <_initialize_ev3api_lcd+0x160>
    3f00:	000122c4 	andeq	r2, r1, r4, asr #5
    3f04:	0000015c 	andeq	r0, r0, ip, asr r1
    3f08:	00000148 	andeq	r0, r0, r8, asr #2
    3f0c:	0000014c 	andeq	r0, r0, ip, asr #2
    3f10:	000001f8 	strdeq	r0, [r0], -r8
    3f14:	00000158 	andeq	r0, r0, r8, asr r1
    3f18:	00000150 	andeq	r0, r0, r0, asr r1
    3f1c:	00000154 	andeq	r0, r0, r4, asr r1

00003f20 <_initialize_ev3api_motor>:
    3f20:	e59fc258 	ldr	ip, [pc, #600]	; 4180 <_initialize_ev3api_motor+0x260>
    3f24:	e59f3258 	ldr	r3, [pc, #600]	; 4184 <_initialize_ev3api_motor+0x264>
    3f28:	e08fc00c 	add	ip, pc, ip
    3f2c:	e92d43f0 	push	{r4, r5, r6, r7, r8, r9, lr}
    3f30:	e79c5003 	ldr	r5, [ip, r3]
    3f34:	e24dd05c 	sub	sp, sp, #92	; 0x5c
    3f38:	e5953000 	ldr	r3, [r5]
    3f3c:	e3530000 	cmp	r3, #0
    3f40:	0a00001b 	beq	3fb4 <_initialize_ev3api_motor+0x94>
    3f44:	e59f223c 	ldr	r2, [pc, #572]	; 4188 <_initialize_ev3api_motor+0x268>
    3f48:	e3a06002 	mov	r6, #2
    3f4c:	e58d6020 	str	r6, [sp, #32]
    3f50:	e59f3234 	ldr	r3, [pc, #564]	; 418c <_initialize_ev3api_motor+0x26c>
    3f54:	e79c1002 	ldr	r1, [ip, r2]
    3f58:	e3a0208d 	mov	r2, #141	; 0x8d
    3f5c:	e58d1028 	str	r1, [sp, #40]	; 0x28
    3f60:	e58d202c 	str	r2, [sp, #44]	; 0x2c
    3f64:	e79c3003 	ldr	r3, [ip, r3]
    3f68:	e3a00000 	mov	r0, #0
    3f6c:	e58d3030 	str	r3, [sp, #48]	; 0x30
    3f70:	e1a02000 	mov	r2, r0
    3f74:	e1a03000 	mov	r3, r0
    3f78:	e1a04000 	mov	r4, r0
    3f7c:	e28d1020 	add	r1, sp, #32
    3f80:	e3a08001 	mov	r8, #1
    3f84:	e1a07008 	mov	r7, r8
    3f88:	ef000001 	svc	0x00000001
    3f8c:	e1500002 	cmp	r0, r2
    3f90:	ba000004 	blt	3fa8 <_initialize_ev3api_motor+0x88>
    3f94:	e5953000 	ldr	r3, [r5]
    3f98:	e3530000 	cmp	r3, #0
    3f9c:	0a000004 	beq	3fb4 <_initialize_ev3api_motor+0x94>
    3fa0:	e28dd05c 	add	sp, sp, #92	; 0x5c
    3fa4:	e8bd83f0 	pop	{r4, r5, r6, r7, r8, r9, pc}
    3fa8:	e1a07006 	mov	r7, r6
    3fac:	ef000001 	svc	0x00000001
    3fb0:	eafffff7 	b	3f94 <_initialize_ev3api_motor+0x74>
    3fb4:	e3a06000 	mov	r6, #0
    3fb8:	e5c56004 	strb	r6, [r5, #4]
    3fbc:	e5c56005 	strb	r6, [r5, #5]
    3fc0:	e5c56006 	strb	r6, [r5, #6]
    3fc4:	e5c56007 	strb	r6, [r5, #7]
    3fc8:	e1a01006 	mov	r1, r6
    3fcc:	e1a02006 	mov	r2, r6
    3fd0:	e1a03006 	mov	r3, r6
    3fd4:	e1a04006 	mov	r4, r6
    3fd8:	e28d0020 	add	r0, sp, #32
    3fdc:	e3a08018 	mov	r8, #24
    3fe0:	e1a07008 	mov	r7, r8
    3fe4:	ef000001 	svc	0x00000001
    3fe8:	e3700021 	cmn	r0, #33	; 0x21
    3fec:	0a000037 	beq	40d0 <_initialize_ev3api_motor+0x1b0>
    3ff0:	e3500000 	cmp	r0, #0
    3ff4:	1a00001d 	bne	4070 <_initialize_ev3api_motor+0x150>
    3ff8:	e59d302c 	ldr	r3, [sp, #44]	; 0x2c
    3ffc:	e59d0030 	ldr	r0, [sp, #48]	; 0x30
    4000:	e3530000 	cmp	r3, #0
    4004:	e5853000 	str	r3, [r5]
    4008:	e5850008 	str	r0, [r5, #8]
    400c:	0a000044 	beq	4124 <_initialize_ev3api_motor+0x204>
    4010:	e3500000 	cmp	r0, #0
    4014:	1affffe1 	bne	3fa0 <_initialize_ev3api_motor+0x80>
    4018:	e59f2168 	ldr	r2, [pc, #360]	; 4188 <_initialize_ev3api_motor+0x268>
    401c:	e3a05002 	mov	r5, #2
    4020:	e58d5000 	str	r5, [sp]
    4024:	e59f3164 	ldr	r3, [pc, #356]	; 4190 <_initialize_ev3api_motor+0x270>
    4028:	e79c1002 	ldr	r1, [ip, r2]
    402c:	e3a02099 	mov	r2, #153	; 0x99
    4030:	e58d1008 	str	r1, [sp, #8]
    4034:	e58d200c 	str	r2, [sp, #12]
    4038:	e79c3003 	ldr	r3, [ip, r3]
    403c:	e1a0100d 	mov	r1, sp
    4040:	e58d3010 	str	r3, [sp, #16]
    4044:	e1a02000 	mov	r2, r0
    4048:	e1a03000 	mov	r3, r0
    404c:	e1a04000 	mov	r4, r0
    4050:	e3a0c001 	mov	ip, #1
    4054:	e1a0700c 	mov	r7, ip
    4058:	ef000001 	svc	0x00000001
    405c:	e3500000 	cmp	r0, #0
    4060:	aaffffce 	bge	3fa0 <_initialize_ev3api_motor+0x80>
    4064:	e1a07005 	mov	r7, r5
    4068:	ef000001 	svc	0x00000001
    406c:	eaffffcb 	b	3fa0 <_initialize_ev3api_motor+0x80>
    4070:	e1a0800d 	mov	r8, sp
    4074:	e59f210c 	ldr	r2, [pc, #268]	; 4188 <_initialize_ev3api_motor+0x268>
    4078:	e3a06002 	mov	r6, #2
    407c:	e58d6000 	str	r6, [sp]
    4080:	e59f310c 	ldr	r3, [pc, #268]	; 4194 <_initialize_ev3api_motor+0x274>
    4084:	e79c1002 	ldr	r1, [ip, r2]
    4088:	e3a02095 	mov	r2, #149	; 0x95
    408c:	e58d1008 	str	r1, [sp, #8]
    4090:	e58d200c 	str	r2, [sp, #12]
    4094:	e79c3003 	ldr	r3, [ip, r3]
    4098:	e3a00000 	mov	r0, #0
    409c:	e1a01008 	mov	r1, r8
    40a0:	e58d3010 	str	r3, [sp, #16]
    40a4:	e1a02000 	mov	r2, r0
    40a8:	e1a03000 	mov	r3, r0
    40ac:	e1a04000 	mov	r4, r0
    40b0:	e3a08001 	mov	r8, #1
    40b4:	e1a07008 	mov	r7, r8
    40b8:	ef000001 	svc	0x00000001
    40bc:	e1500002 	cmp	r0, r2
    40c0:	aaffffcc 	bge	3ff8 <_initialize_ev3api_motor+0xd8>
    40c4:	e1a07006 	mov	r7, r6
    40c8:	ef000001 	svc	0x00000001
    40cc:	eaffffc9 	b	3ff8 <_initialize_ev3api_motor+0xd8>
    40d0:	e59f00c0 	ldr	r0, [pc, #192]	; 4198 <_initialize_ev3api_motor+0x278>
    40d4:	e3a09002 	mov	r9, #2
    40d8:	e58d9000 	str	r9, [sp]
    40dc:	e59f10b8 	ldr	r1, [pc, #184]	; 419c <_initialize_ev3api_motor+0x27c>
    40e0:	e79ce000 	ldr	lr, [ip, r0]
    40e4:	e3a000be 	mov	r0, #190	; 0xbe
    40e8:	e58d000c 	str	r0, [sp, #12]
    40ec:	e58de008 	str	lr, [sp, #8]
    40f0:	e79c1001 	ldr	r1, [ip, r1]
    40f4:	e1a00006 	mov	r0, r6
    40f8:	e58d1010 	str	r1, [sp, #16]
    40fc:	e1a0800d 	mov	r8, sp
    4100:	e1a0100d 	mov	r1, sp
    4104:	e3a06001 	mov	r6, #1
    4108:	e1a07006 	mov	r7, r6
    410c:	ef000001 	svc	0x00000001
    4110:	e3500000 	cmp	r0, #0
    4114:	aaffffd6 	bge	4074 <_initialize_ev3api_motor+0x154>
    4118:	e1a07009 	mov	r7, r9
    411c:	ef000001 	svc	0x00000001
    4120:	eaffffd3 	b	4074 <_initialize_ev3api_motor+0x154>
    4124:	e59f105c 	ldr	r1, [pc, #92]	; 4188 <_initialize_ev3api_motor+0x268>
    4128:	e3a06002 	mov	r6, #2
    412c:	e58d6000 	str	r6, [sp]
    4130:	e59f2068 	ldr	r2, [pc, #104]	; 41a0 <_initialize_ev3api_motor+0x280>
    4134:	e79c0001 	ldr	r0, [ip, r1]
    4138:	e3a01098 	mov	r1, #152	; 0x98
    413c:	e58d0008 	str	r0, [sp, #8]
    4140:	e58d100c 	str	r1, [sp, #12]
    4144:	e79c2002 	ldr	r2, [ip, r2]
    4148:	e1a00003 	mov	r0, r3
    414c:	e58d2010 	str	r2, [sp, #16]
    4150:	e1a0100d 	mov	r1, sp
    4154:	e1a02003 	mov	r2, r3
    4158:	e1a04003 	mov	r4, r3
    415c:	e3a08001 	mov	r8, #1
    4160:	e1a07008 	mov	r7, r8
    4164:	ef000001 	svc	0x00000001
    4168:	e3500000 	cmp	r0, #0
    416c:	aa000001 	bge	4178 <_initialize_ev3api_motor+0x258>
    4170:	e1a07006 	mov	r7, r6
    4174:	ef000001 	svc	0x00000001
    4178:	e5950008 	ldr	r0, [r5, #8]
    417c:	eaffffa3 	b	4010 <_initialize_ev3api_motor+0xf0>
    4180:	000120dc 	ldrdeq	r2, [r1], -ip
    4184:	00000190 	muleq	r0, r0, r1
    4188:	00000164 	andeq	r0, r0, r4, ror #2
    418c:	00000168 	andeq	r0, r0, r8, ror #2
    4190:	0000017c 	andeq	r0, r0, ip, ror r1
    4194:	00000174 	andeq	r0, r0, r4, ror r1
    4198:	0000016c 	andeq	r0, r0, ip, ror #2
    419c:	00000170 	andeq	r0, r0, r0, ror r1
    41a0:	00000178 	andeq	r0, r0, r8, ror r1

000041a4 <ev3_motor_config>:
    41a4:	e92d43f0 	push	{r4, r5, r6, r7, r8, r9, lr}
    41a8:	e59f7100 	ldr	r7, [pc, #256]	; 42b0 <ev3_motor_config+0x10c>
    41ac:	e3500003 	cmp	r0, #3
    41b0:	e24dd00c 	sub	sp, sp, #12
    41b4:	e1a08000 	mov	r8, r0
    41b8:	e08f7007 	add	r7, pc, r7
    41bc:	8a000037 	bhi	42a0 <ev3_motor_config+0xfc>
    41c0:	e3510003 	cmp	r1, #3
    41c4:	8a000037 	bhi	42a8 <ev3_motor_config+0x104>
    41c8:	e59f30e4 	ldr	r3, [pc, #228]	; 42b4 <ev3_motor_config+0x110>
    41cc:	e28d6008 	add	r6, sp, #8
    41d0:	e7973003 	ldr	r3, [r7, r3]
    41d4:	e3e0205e 	mvn	r2, #94	; 0x5e
    41d8:	e2834004 	add	r4, r3, #4
    41dc:	e5662008 	strb	r2, [r6, #-8]!
    41e0:	e0833000 	add	r3, r3, r0
    41e4:	e2849004 	add	r9, r4, #4
    41e8:	e1a05006 	mov	r5, r6
    41ec:	e5c31004 	strb	r1, [r3, #4]
    41f0:	e4d43001 	ldrb	r3, [r4], #1
    41f4:	e3530003 	cmp	r3, #3
    41f8:	908ff103 	addls	pc, pc, r3, lsl #2
    41fc:	ea00001f 	b	4280 <ev3_motor_config+0xdc>
    4200:	ea000002 	b	4210 <ev3_motor_config+0x6c>
    4204:	ea00001b 	b	4278 <ev3_motor_config+0xd4>
    4208:	ea000018 	b	4270 <ev3_motor_config+0xcc>
    420c:	ea000017 	b	4270 <ev3_motor_config+0xcc>
    4210:	e3a0307e 	mov	r3, #126	; 0x7e
    4214:	e1540009 	cmp	r4, r9
    4218:	e5e53001 	strb	r3, [r5, #1]!
    421c:	1afffff3 	bne	41f0 <ev3_motor_config+0x4c>
    4220:	e3a02000 	mov	r2, #0
    4224:	e1a03002 	mov	r3, r2
    4228:	e1a04002 	mov	r4, r2
    422c:	e1a00006 	mov	r0, r6
    4230:	e3a01005 	mov	r1, #5
    4234:	e3a05017 	mov	r5, #23
    4238:	e1a07005 	mov	r7, r5
    423c:	ef000001 	svc	0x00000001
    4240:	e3a00001 	mov	r0, #1
    4244:	e1a08810 	lsl	r8, r0, r8
    4248:	e3e0e05c 	mvn	lr, #92	; 0x5c
    424c:	e1a00006 	mov	r0, r6
    4250:	e5cd8001 	strb	r8, [sp, #1]
    4254:	e5cde000 	strb	lr, [sp]
    4258:	e5cd2002 	strb	r2, [sp, #2]
    425c:	e1a07005 	mov	r7, r5
    4260:	ef000001 	svc	0x00000001
    4264:	e1a00002 	mov	r0, r2
    4268:	e28dd00c 	add	sp, sp, #12
    426c:	e8bd83f0 	pop	{r4, r5, r6, r7, r8, r9, pc}
    4270:	e3a03007 	mov	r3, #7
    4274:	eaffffe6 	b	4214 <ev3_motor_config+0x70>
    4278:	e3a03008 	mov	r3, #8
    427c:	eaffffe4 	b	4214 <ev3_motor_config+0x70>
    4280:	e59f1030 	ldr	r1, [pc, #48]	; 42b8 <ev3_motor_config+0x114>
    4284:	e59f2030 	ldr	r2, [pc, #48]	; 42bc <ev3_motor_config+0x118>
    4288:	e7971001 	ldr	r1, [r7, r1]
    428c:	e7972002 	ldr	r2, [r7, r2]
    4290:	e3a00003 	mov	r0, #3
    4294:	ebfff023 	bl	328 <syslog>
    4298:	e3a0307e 	mov	r3, #126	; 0x7e
    429c:	eaffffdc 	b	4214 <ev3_motor_config+0x70>
    42a0:	e3e00011 	mvn	r0, #17
    42a4:	eaffffef 	b	4268 <ev3_motor_config+0xc4>
    42a8:	e3e00010 	mvn	r0, #16
    42ac:	eaffffed 	b	4268 <ev3_motor_config+0xc4>
    42b0:	00011e4c 	andeq	r1, r1, ip, asr #28
    42b4:	00000190 	muleq	r0, r0, r1
    42b8:	00000180 	andeq	r0, r0, r0, lsl #3
    42bc:	00000160 	andeq	r0, r0, r0, ror #2

000042c0 <ev3_motor_get_type>:
    42c0:	e59f3024 	ldr	r3, [pc, #36]	; 42ec <ev3_motor_get_type+0x2c>
    42c4:	e3500003 	cmp	r0, #3
    42c8:	e08f3003 	add	r3, pc, r3
    42cc:	8a000004 	bhi	42e4 <ev3_motor_get_type+0x24>
    42d0:	e59f2018 	ldr	r2, [pc, #24]	; 42f0 <ev3_motor_get_type+0x30>
    42d4:	e7933002 	ldr	r3, [r3, r2]
    42d8:	e0830000 	add	r0, r3, r0
    42dc:	e5d00004 	ldrb	r0, [r0, #4]
    42e0:	e12fff1e 	bx	lr
    42e4:	e3e00011 	mvn	r0, #17
    42e8:	e12fff1e 	bx	lr
    42ec:	00011d3c 	andeq	r1, r1, ip, lsr sp
    42f0:	00000190 	muleq	r0, r0, r1

000042f4 <ev3_motor_get_counts>:
    42f4:	e92d4038 	push	{r3, r4, r5, lr}
    42f8:	e59f4094 	ldr	r4, [pc, #148]	; 4394 <ev3_motor_get_counts+0xa0>
    42fc:	e3500003 	cmp	r0, #3
    4300:	e08f4004 	add	r4, pc, r4
    4304:	8a00000c 	bhi	433c <ev3_motor_get_counts+0x48>
    4308:	e59f3088 	ldr	r3, [pc, #136]	; 4398 <ev3_motor_get_counts+0xa4>
    430c:	e7942003 	ldr	r2, [r4, r3]
    4310:	e0823000 	add	r3, r2, r0
    4314:	e5d33004 	ldrb	r3, [r3, #4]
    4318:	e3530000 	cmp	r3, #0
    431c:	0a000010 	beq	4364 <ev3_motor_get_counts+0x70>
    4320:	e3530003 	cmp	r3, #3
    4324:	8a000012 	bhi	4374 <ev3_motor_get_counts+0x80>
    4328:	e5923000 	ldr	r3, [r2]
    432c:	e0830180 	add	r0, r3, r0, lsl #3
    4330:	e5903004 	ldr	r3, [r0, #4]
    4334:	e5930000 	ldr	r0, [r3]
    4338:	e8bd8038 	pop	{r3, r4, r5, pc}
    433c:	e59f2058 	ldr	r2, [pc, #88]	; 439c <ev3_motor_get_counts+0xa8>
    4340:	e3e03011 	mvn	r3, #17
    4344:	e7945002 	ldr	r5, [r4, r2]
    4348:	e59f1050 	ldr	r1, [pc, #80]	; 43a0 <ev3_motor_get_counts+0xac>
    434c:	e285200c 	add	r2, r5, #12
    4350:	e7941001 	ldr	r1, [r4, r1]
    4354:	e3a00003 	mov	r0, #3
    4358:	ebffeff2 	bl	328 <syslog>
    435c:	e3a00000 	mov	r0, #0
    4360:	e8bd8038 	pop	{r3, r4, r5, pc}
    4364:	e59f3030 	ldr	r3, [pc, #48]	; 439c <ev3_motor_get_counts+0xa8>
    4368:	e7945003 	ldr	r5, [r4, r3]
    436c:	e3e03028 	mvn	r3, #40	; 0x28
    4370:	eafffff4 	b	4348 <ev3_motor_get_counts+0x54>
    4374:	e59f2020 	ldr	r2, [pc, #32]	; 439c <ev3_motor_get_counts+0xa8>
    4378:	e59f1024 	ldr	r1, [pc, #36]	; 43a4 <ev3_motor_get_counts+0xb0>
    437c:	e7945002 	ldr	r5, [r4, r2]
    4380:	e7941001 	ldr	r1, [r4, r1]
    4384:	e1a02005 	mov	r2, r5
    4388:	e3a00003 	mov	r0, #3
    438c:	ebffefe5 	bl	328 <syslog>
    4390:	eafffff5 	b	436c <ev3_motor_get_counts+0x78>
    4394:	00011d04 	andeq	r1, r1, r4, lsl #26
    4398:	00000190 	muleq	r0, r0, r1
    439c:	00000160 	andeq	r0, r0, r0, ror #2
    43a0:	00000184 	andeq	r0, r0, r4, lsl #3
    43a4:	00000180 	andeq	r0, r0, r0, lsl #3

000043a8 <ev3_motor_get_power>:
    43a8:	e92d4038 	push	{r3, r4, r5, lr}
    43ac:	e59f4098 	ldr	r4, [pc, #152]	; 444c <ev3_motor_get_power+0xa4>
    43b0:	e3500003 	cmp	r0, #3
    43b4:	e08f4004 	add	r4, pc, r4
    43b8:	8a00000d 	bhi	43f4 <ev3_motor_get_power+0x4c>
    43bc:	e59f308c 	ldr	r3, [pc, #140]	; 4450 <ev3_motor_get_power+0xa8>
    43c0:	e7942003 	ldr	r2, [r4, r3]
    43c4:	e0823000 	add	r3, r2, r0
    43c8:	e5d33004 	ldrb	r3, [r3, #4]
    43cc:	e3530000 	cmp	r3, #0
    43d0:	0a000011 	beq	441c <ev3_motor_get_power+0x74>
    43d4:	e3530003 	cmp	r3, #3
    43d8:	8a000013 	bhi	442c <ev3_motor_get_power+0x84>
    43dc:	e5923000 	ldr	r3, [r2]
    43e0:	e7933180 	ldr	r3, [r3, r0, lsl #3]
    43e4:	e5d30000 	ldrb	r0, [r3]
    43e8:	e1a00c00 	lsl	r0, r0, #24
    43ec:	e1a00c40 	asr	r0, r0, #24
    43f0:	e8bd8038 	pop	{r3, r4, r5, pc}
    43f4:	e59f2058 	ldr	r2, [pc, #88]	; 4454 <ev3_motor_get_power+0xac>
    43f8:	e3e03011 	mvn	r3, #17
    43fc:	e7945002 	ldr	r5, [r4, r2]
    4400:	e59f1050 	ldr	r1, [pc, #80]	; 4458 <ev3_motor_get_power+0xb0>
    4404:	e2852024 	add	r2, r5, #36	; 0x24
    4408:	e7941001 	ldr	r1, [r4, r1]
    440c:	e3a00003 	mov	r0, #3
    4410:	ebffefc4 	bl	328 <syslog>
    4414:	e3a00000 	mov	r0, #0
    4418:	e8bd8038 	pop	{r3, r4, r5, pc}
    441c:	e59f3030 	ldr	r3, [pc, #48]	; 4454 <ev3_motor_get_power+0xac>
    4420:	e7945003 	ldr	r5, [r4, r3]
    4424:	e3e03028 	mvn	r3, #40	; 0x28
    4428:	eafffff4 	b	4400 <ev3_motor_get_power+0x58>
    442c:	e59f2020 	ldr	r2, [pc, #32]	; 4454 <ev3_motor_get_power+0xac>
    4430:	e59f1024 	ldr	r1, [pc, #36]	; 445c <ev3_motor_get_power+0xb4>
    4434:	e7945002 	ldr	r5, [r4, r2]
    4438:	e7941001 	ldr	r1, [r4, r1]
    443c:	e1a02005 	mov	r2, r5
    4440:	e3a00003 	mov	r0, #3
    4444:	ebffefb7 	bl	328 <syslog>
    4448:	eafffff5 	b	4424 <ev3_motor_get_power+0x7c>
    444c:	00011c50 	andeq	r1, r1, r0, asr ip
    4450:	00000190 	muleq	r0, r0, r1
    4454:	00000160 	andeq	r0, r0, r0, ror #2
    4458:	00000188 	andeq	r0, r0, r8, lsl #3
    445c:	00000180 	andeq	r0, r0, r0, lsl #3

00004460 <ev3_motor_reset_counts>:
    4460:	e59f20a4 	ldr	r2, [pc, #164]	; 450c <ev3_motor_reset_counts+0xac>
    4464:	e3500003 	cmp	r0, #3
    4468:	e08f2002 	add	r2, pc, r2
    446c:	8a000024 	bhi	4504 <ev3_motor_reset_counts+0xa4>
    4470:	e59f3098 	ldr	r3, [pc, #152]	; 4510 <ev3_motor_reset_counts+0xb0>
    4474:	e7923003 	ldr	r3, [r2, r3]
    4478:	e0833000 	add	r3, r3, r0
    447c:	e5d33004 	ldrb	r3, [r3, #4]
    4480:	e3530000 	cmp	r3, #0
    4484:	0a00001c 	beq	44fc <ev3_motor_reset_counts+0x9c>
    4488:	e3530003 	cmp	r3, #3
    448c:	e92d4090 	push	{r4, r7, lr}
    4490:	e24dd00c 	sub	sp, sp, #12
    4494:	8a00000f 	bhi	44d8 <ev3_motor_reset_counts+0x78>
    4498:	e3a03001 	mov	r3, #1
    449c:	e1a00013 	lsl	r0, r3, r0
    44a0:	e3a02000 	mov	r2, #0
    44a4:	e3e0304d 	mvn	r3, #77	; 0x4d
    44a8:	e5cd0005 	strb	r0, [sp, #5]
    44ac:	e5cd3004 	strb	r3, [sp, #4]
    44b0:	e1a04002 	mov	r4, r2
    44b4:	e1a03002 	mov	r3, r2
    44b8:	e28d0004 	add	r0, sp, #4
    44bc:	e3a01002 	mov	r1, #2
    44c0:	e3a0c017 	mov	ip, #23
    44c4:	e1a0700c 	mov	r7, ip
    44c8:	ef000001 	svc	0x00000001
    44cc:	e1a00002 	mov	r0, r2
    44d0:	e28dd00c 	add	sp, sp, #12
    44d4:	e8bd8090 	pop	{r4, r7, pc}
    44d8:	e59f0034 	ldr	r0, [pc, #52]	; 4514 <ev3_motor_reset_counts+0xb4>
    44dc:	e59f1034 	ldr	r1, [pc, #52]	; 4518 <ev3_motor_reset_counts+0xb8>
    44e0:	e7921001 	ldr	r1, [r2, r1]
    44e4:	e7922000 	ldr	r2, [r2, r0]
    44e8:	e3a00003 	mov	r0, #3
    44ec:	ebffef8d 	bl	328 <syslog>
    44f0:	e3e00028 	mvn	r0, #40	; 0x28
    44f4:	e28dd00c 	add	sp, sp, #12
    44f8:	e8bd8090 	pop	{r4, r7, pc}
    44fc:	e3e00028 	mvn	r0, #40	; 0x28
    4500:	e12fff1e 	bx	lr
    4504:	e3e00011 	mvn	r0, #17
    4508:	e12fff1e 	bx	lr
    450c:	00011b9c 	muleq	r1, ip, fp
    4510:	00000190 	muleq	r0, r0, r1
    4514:	00000160 	andeq	r0, r0, r0, ror #2
    4518:	00000180 	andeq	r0, r0, r0, lsl #3

0000451c <ev3_motor_set_power>:
    451c:	e59f2124 	ldr	r2, [pc, #292]	; 4648 <ev3_motor_set_power+0x12c>
    4520:	e3500003 	cmp	r0, #3
    4524:	e08f2002 	add	r2, pc, r2
    4528:	8a000044 	bhi	4640 <ev3_motor_set_power+0x124>
    452c:	e59f3118 	ldr	r3, [pc, #280]	; 464c <ev3_motor_set_power+0x130>
    4530:	e92d40f0 	push	{r4, r5, r6, r7, lr}
    4534:	e7923003 	ldr	r3, [r2, r3]
    4538:	e24dd014 	sub	sp, sp, #20
    453c:	e0833000 	add	r3, r3, r0
    4540:	e5d35004 	ldrb	r5, [r3, #4]
    4544:	e3550000 	cmp	r5, #0
    4548:	0a000039 	beq	4634 <ev3_motor_set_power+0x118>
    454c:	e3550003 	cmp	r5, #3
    4550:	e1a03001 	mov	r3, r1
    4554:	e1a04000 	mov	r4, r0
    4558:	8a00002e 	bhi	4618 <ev3_motor_set_power+0xfc>
    455c:	e2811064 	add	r1, r1, #100	; 0x64
    4560:	e35100c8 	cmp	r1, #200	; 0xc8
    4564:	920360ff 	andls	r6, r3, #255	; 0xff
    4568:	9a00000c 	bls	45a0 <ev3_motor_set_power+0x84>
    456c:	e59f00dc 	ldr	r0, [pc, #220]	; 4650 <ev3_motor_set_power+0x134>
    4570:	e59f10dc 	ldr	r1, [pc, #220]	; 4654 <ev3_motor_set_power+0x138>
    4574:	e3530000 	cmp	r3, #0
    4578:	e7921001 	ldr	r1, [r2, r1]
    457c:	e7922000 	ldr	r2, [r2, r0]
    4580:	c3a06064 	movgt	r6, #100	; 0x64
    4584:	d3e0c063 	mvnle	ip, #99	; 0x63
    4588:	c1a0c006 	movgt	ip, r6
    458c:	e2822038 	add	r2, r2, #56	; 0x38
    4590:	e58dc000 	str	ip, [sp]
    4594:	e3a00004 	mov	r0, #4
    4598:	d3a0609c 	movle	r6, #156	; 0x9c
    459c:	ebffef61 	bl	328 <syslog>
    45a0:	e3550003 	cmp	r5, #3
    45a4:	03e0305b 	mvneq	r3, #91	; 0x5b
    45a8:	13e0305a 	mvnne	r3, #90	; 0x5a
    45ac:	e5cd300c 	strb	r3, [sp, #12]
    45b0:	e3a03001 	mov	r3, #1
    45b4:	e1a0c413 	lsl	ip, r3, r4
    45b8:	e3a02000 	mov	r2, #0
    45bc:	e20cc0ff 	and	ip, ip, #255	; 0xff
    45c0:	e28d500c 	add	r5, sp, #12
    45c4:	e5cd600e 	strb	r6, [sp, #14]
    45c8:	e5cdc00d 	strb	ip, [sp, #13]
    45cc:	e1a00005 	mov	r0, r5
    45d0:	e1a03002 	mov	r3, r2
    45d4:	e1a04002 	mov	r4, r2
    45d8:	e3a01003 	mov	r1, #3
    45dc:	e3a06017 	mov	r6, #23
    45e0:	e1a07006 	mov	r7, r6
    45e4:	ef000001 	svc	0x00000001
    45e8:	e1a00005 	mov	r0, r5
    45ec:	e1a07006 	mov	r7, r6
    45f0:	ef000001 	svc	0x00000001
    45f4:	e3e0e059 	mvn	lr, #89	; 0x59
    45f8:	e5cdc00d 	strb	ip, [sp, #13]
    45fc:	e1a00005 	mov	r0, r5
    4600:	e5cde00c 	strb	lr, [sp, #12]
    4604:	e1a07006 	mov	r7, r6
    4608:	ef000001 	svc	0x00000001
    460c:	e1a00002 	mov	r0, r2
    4610:	e28dd014 	add	sp, sp, #20
    4614:	e8bd80f0 	pop	{r4, r5, r6, r7, pc}
    4618:	e59f3030 	ldr	r3, [pc, #48]	; 4650 <ev3_motor_set_power+0x134>
    461c:	e59f1034 	ldr	r1, [pc, #52]	; 4658 <ev3_motor_set_power+0x13c>
    4620:	e3a00003 	mov	r0, #3
    4624:	e7921001 	ldr	r1, [r2, r1]
    4628:	e7922003 	ldr	r2, [r2, r3]
    462c:	e1a03005 	mov	r3, r5
    4630:	ebffef3c 	bl	328 <syslog>
    4634:	e3e00028 	mvn	r0, #40	; 0x28
    4638:	e28dd014 	add	sp, sp, #20
    463c:	e8bd80f0 	pop	{r4, r5, r6, r7, pc}
    4640:	e3e00011 	mvn	r0, #17
    4644:	e12fff1e 	bx	lr
    4648:	00011ae0 	andeq	r1, r1, r0, ror #21
    464c:	00000190 	muleq	r0, r0, r1
    4650:	00000160 	andeq	r0, r0, r0, ror #2
    4654:	0000018c 	andeq	r0, r0, ip, lsl #3
    4658:	00000180 	andeq	r0, r0, r0, lsl #3

0000465c <ev3_motor_stop>:
    465c:	e59f20a8 	ldr	r2, [pc, #168]	; 470c <ev3_motor_stop+0xb0>
    4660:	e3500003 	cmp	r0, #3
    4664:	e08f2002 	add	r2, pc, r2
    4668:	8a000025 	bhi	4704 <ev3_motor_stop+0xa8>
    466c:	e59f309c 	ldr	r3, [pc, #156]	; 4710 <ev3_motor_stop+0xb4>
    4670:	e7923003 	ldr	r3, [r2, r3]
    4674:	e0833000 	add	r3, r3, r0
    4678:	e5d33004 	ldrb	r3, [r3, #4]
    467c:	e3530000 	cmp	r3, #0
    4680:	0a00001d 	beq	46fc <ev3_motor_stop+0xa0>
    4684:	e3530003 	cmp	r3, #3
    4688:	e92d4090 	push	{r4, r7, lr}
    468c:	e24dd00c 	sub	sp, sp, #12
    4690:	8a000010 	bhi	46d8 <ev3_motor_stop+0x7c>
    4694:	e3a03001 	mov	r3, #1
    4698:	e1a00013 	lsl	r0, r3, r0
    469c:	e3a02000 	mov	r2, #0
    46a0:	e3e0305c 	mvn	r3, #92	; 0x5c
    46a4:	e5cd1006 	strb	r1, [sp, #6]
    46a8:	e5cd0005 	strb	r0, [sp, #5]
    46ac:	e5cd3004 	strb	r3, [sp, #4]
    46b0:	e1a04002 	mov	r4, r2
    46b4:	e1a03002 	mov	r3, r2
    46b8:	e28d0004 	add	r0, sp, #4
    46bc:	e3a01003 	mov	r1, #3
    46c0:	e3a0c017 	mov	ip, #23
    46c4:	e1a0700c 	mov	r7, ip
    46c8:	ef000001 	svc	0x00000001
    46cc:	e1a00002 	mov	r0, r2
    46d0:	e28dd00c 	add	sp, sp, #12
    46d4:	e8bd8090 	pop	{r4, r7, pc}
    46d8:	e59f0034 	ldr	r0, [pc, #52]	; 4714 <ev3_motor_stop+0xb8>
    46dc:	e59f1034 	ldr	r1, [pc, #52]	; 4718 <ev3_motor_stop+0xbc>
    46e0:	e7921001 	ldr	r1, [r2, r1]
    46e4:	e7922000 	ldr	r2, [r2, r0]
    46e8:	e3a00003 	mov	r0, #3
    46ec:	ebffef0d 	bl	328 <syslog>
    46f0:	e3e00028 	mvn	r0, #40	; 0x28
    46f4:	e28dd00c 	add	sp, sp, #12
    46f8:	e8bd8090 	pop	{r4, r7, pc}
    46fc:	e3e00028 	mvn	r0, #40	; 0x28
    4700:	e12fff1e 	bx	lr
    4704:	e3e00011 	mvn	r0, #17
    4708:	e12fff1e 	bx	lr
    470c:	000119a0 	andeq	r1, r1, r0, lsr #19
    4710:	00000190 	muleq	r0, r0, r1
    4714:	00000160 	andeq	r0, r0, r0, ror #2
    4718:	00000180 	andeq	r0, r0, r0, lsl #3

0000471c <ev3_motor_rotate>:
    471c:	e92d41f0 	push	{r4, r5, r6, r7, r8, lr}
    4720:	e59fe0e8 	ldr	lr, [pc, #232]	; 4810 <ev3_motor_rotate+0xf4>
    4724:	e3500003 	cmp	r0, #3
    4728:	e24dd018 	sub	sp, sp, #24
    472c:	e08fe00e 	add	lr, pc, lr
    4730:	8a000034 	bhi	4808 <ev3_motor_rotate+0xec>
    4734:	e1a0c003 	mov	ip, r3
    4738:	e59f30d4 	ldr	r3, [pc, #212]	; 4814 <ev3_motor_rotate+0xf8>
    473c:	e79e6003 	ldr	r6, [lr, r3]
    4740:	e0863000 	add	r3, r6, r0
    4744:	e5d33004 	ldrb	r3, [r3, #4]
    4748:	e3530000 	cmp	r3, #0
    474c:	0a000027 	beq	47f0 <ev3_motor_rotate+0xd4>
    4750:	e3530003 	cmp	r3, #3
    4754:	8a00001f 	bhi	47d8 <ev3_motor_rotate+0xbc>
    4758:	e3510000 	cmp	r1, #0
    475c:	e3a0e001 	mov	lr, #1
    4760:	b3a030ff 	movlt	r3, #255	; 0xff
    4764:	a3a03001 	movge	r3, #1
    4768:	e1630283 	smulbb	r3, r3, r2
    476c:	e1a0501e 	lsl	r5, lr, r0
    4770:	e3510000 	cmp	r1, #0
    4774:	e3a02000 	mov	r2, #0
    4778:	b2611000 	rsblt	r1, r1, #0
    477c:	e3e00051 	mvn	r0, #81	; 0x51
    4780:	e5cd3006 	strb	r3, [sp, #6]
    4784:	e58d100c 	str	r1, [sp, #12]
    4788:	e5cd0004 	strb	r0, [sp, #4]
    478c:	e5cd5005 	strb	r5, [sp, #5]
    4790:	e5cde014 	strb	lr, [sp, #20]
    4794:	e58d2008 	str	r2, [sp, #8]
    4798:	e58d2010 	str	r2, [sp, #16]
    479c:	e1a03002 	mov	r3, r2
    47a0:	e1a04002 	mov	r4, r2
    47a4:	e28d0004 	add	r0, sp, #4
    47a8:	e3a01014 	mov	r1, #20
    47ac:	e3a08017 	mov	r8, #23
    47b0:	e1a07008 	mov	r7, r8
    47b4:	ef000001 	svc	0x00000001
    47b8:	e15c0002 	cmp	ip, r2
    47bc:	0a00000e 	beq	47fc <ev3_motor_rotate+0xe0>
    47c0:	e5963008 	ldr	r3, [r6, #8]
    47c4:	e5d30000 	ldrb	r0, [r3]
    47c8:	e0150000 	ands	r0, r5, r0
    47cc:	1afffffc 	bne	47c4 <ev3_motor_rotate+0xa8>
    47d0:	e28dd018 	add	sp, sp, #24
    47d4:	e8bd81f0 	pop	{r4, r5, r6, r7, r8, pc}
    47d8:	e59f1038 	ldr	r1, [pc, #56]	; 4818 <ev3_motor_rotate+0xfc>
    47dc:	e59f2038 	ldr	r2, [pc, #56]	; 481c <ev3_motor_rotate+0x100>
    47e0:	e79e1001 	ldr	r1, [lr, r1]
    47e4:	e79e2002 	ldr	r2, [lr, r2]
    47e8:	e3a00003 	mov	r0, #3
    47ec:	ebffeecd 	bl	328 <syslog>
    47f0:	e3e00028 	mvn	r0, #40	; 0x28
    47f4:	e28dd018 	add	sp, sp, #24
    47f8:	e8bd81f0 	pop	{r4, r5, r6, r7, r8, pc}
    47fc:	e1a0000c 	mov	r0, ip
    4800:	e28dd018 	add	sp, sp, #24
    4804:	e8bd81f0 	pop	{r4, r5, r6, r7, r8, pc}
    4808:	e3e00011 	mvn	r0, #17
    480c:	eaffffef 	b	47d0 <ev3_motor_rotate+0xb4>
    4810:	000118d8 	ldrdeq	r1, [r1], -r8
    4814:	00000190 	muleq	r0, r0, r1
    4818:	00000180 	andeq	r0, r0, r0, lsl #3
    481c:	00000160 	andeq	r0, r0, r0, ror #2

00004820 <ev3_motor_steer>:
    4820:	e92d4090 	push	{r4, r7, lr}
    4824:	e59fe110 	ldr	lr, [pc, #272]	; 493c <ev3_motor_steer+0x11c>
    4828:	e3500003 	cmp	r0, #3
    482c:	e24dd014 	sub	sp, sp, #20
    4830:	e08fe00e 	add	lr, pc, lr
    4834:	8a00003d 	bhi	4930 <ev3_motor_steer+0x110>
    4838:	e59fc100 	ldr	ip, [pc, #256]	; 4940 <ev3_motor_steer+0x120>
    483c:	e79ec00c 	ldr	ip, [lr, ip]
    4840:	e08c4000 	add	r4, ip, r0
    4844:	e5d44004 	ldrb	r4, [r4, #4]
    4848:	e3540000 	cmp	r4, #0
    484c:	0a00002c 	beq	4904 <ev3_motor_steer+0xe4>
    4850:	e3540003 	cmp	r4, #3
    4854:	8a000023 	bhi	48e8 <ev3_motor_steer+0xc8>
    4858:	e3510003 	cmp	r1, #3
    485c:	8a000033 	bhi	4930 <ev3_motor_steer+0x110>
    4860:	e08cc001 	add	ip, ip, r1
    4864:	e5dcc004 	ldrb	ip, [ip, #4]
    4868:	e35c0000 	cmp	ip, #0
    486c:	0a000024 	beq	4904 <ev3_motor_steer+0xe4>
    4870:	e35c0003 	cmp	ip, #3
    4874:	8a000025 	bhi	4910 <ev3_motor_steer+0xf0>
    4878:	e1510000 	cmp	r1, r0
    487c:	e3a0e001 	mov	lr, #1
    4880:	93a0c000 	movls	ip, #0
    4884:	83a0c001 	movhi	ip, #1
    4888:	e1a0111e 	lsl	r1, lr, r1
    488c:	e26c4000 	rsb	r4, ip, #0
    4890:	e181001e 	orr	r0, r1, lr, lsl r0
    4894:	e0233004 	eor	r3, r3, r4
    4898:	e3a01000 	mov	r1, #0
    489c:	e083300c 	add	r3, r3, ip
    48a0:	e3e0c04f 	mvn	ip, #79	; 0x4f
    48a4:	e5cd2002 	strb	r2, [sp, #2]
    48a8:	e1cd30b4 	strh	r3, [sp, #4]
    48ac:	e5cd0001 	strb	r0, [sp, #1]
    48b0:	e5cdc000 	strb	ip, [sp]
    48b4:	e58d1008 	str	r1, [sp, #8]
    48b8:	e5cd100c 	strb	r1, [sp, #12]
    48bc:	e1a02001 	mov	r2, r1
    48c0:	e1a03001 	mov	r3, r1
    48c4:	e1a04001 	mov	r4, r1
    48c8:	e1a0000d 	mov	r0, sp
    48cc:	e3a01010 	mov	r1, #16
    48d0:	e3a0c017 	mov	ip, #23
    48d4:	e1a0700c 	mov	r7, ip
    48d8:	ef000001 	svc	0x00000001
    48dc:	e1a00002 	mov	r0, r2
    48e0:	e28dd014 	add	sp, sp, #20
    48e4:	e8bd8090 	pop	{r4, r7, pc}
    48e8:	e59f2054 	ldr	r2, [pc, #84]	; 4944 <ev3_motor_steer+0x124>
    48ec:	e59f3054 	ldr	r3, [pc, #84]	; 4948 <ev3_motor_steer+0x128>
    48f0:	e79e1002 	ldr	r1, [lr, r2]
    48f4:	e3a00003 	mov	r0, #3
    48f8:	e79e2003 	ldr	r2, [lr, r3]
    48fc:	e1a03004 	mov	r3, r4
    4900:	ebffee88 	bl	328 <syslog>
    4904:	e3e00028 	mvn	r0, #40	; 0x28
    4908:	e28dd014 	add	sp, sp, #20
    490c:	e8bd8090 	pop	{r4, r7, pc}
    4910:	e59f202c 	ldr	r2, [pc, #44]	; 4944 <ev3_motor_steer+0x124>
    4914:	e59f302c 	ldr	r3, [pc, #44]	; 4948 <ev3_motor_steer+0x128>
    4918:	e79e1002 	ldr	r1, [lr, r2]
    491c:	e3a00003 	mov	r0, #3
    4920:	e79e2003 	ldr	r2, [lr, r3]
    4924:	e1a0300c 	mov	r3, ip
    4928:	ebffee7e 	bl	328 <syslog>
    492c:	eafffff4 	b	4904 <ev3_motor_steer+0xe4>
    4930:	e3e00011 	mvn	r0, #17
    4934:	e28dd014 	add	sp, sp, #20
    4938:	e8bd8090 	pop	{r4, r7, pc}
    493c:	000117d4 	ldrdeq	r1, [r1], -r4
    4940:	00000190 	muleq	r0, r0, r1
    4944:	00000180 	andeq	r0, r0, r0, lsl #3
    4948:	00000160 	andeq	r0, r0, r0, ror #2

0000494c <_fstat>:
    494c:	e59f3030 	ldr	r3, [pc, #48]	; 4984 <_fstat+0x38>
    4950:	e3500005 	cmp	r0, #5
    4954:	e08f3003 	add	r3, pc, r3
    4958:	8a000003 	bhi	496c <_fstat+0x20>
    495c:	e3a03a02 	mov	r3, #8192	; 0x2000
    4960:	e5813004 	str	r3, [r1, #4]
    4964:	e3a00000 	mov	r0, #0
    4968:	e12fff1e 	bx	lr
    496c:	e59f2014 	ldr	r2, [pc, #20]	; 4988 <_fstat+0x3c>
    4970:	e3a01009 	mov	r1, #9
    4974:	e7933002 	ldr	r3, [r3, r2]
    4978:	e3e00000 	mvn	r0, #0
    497c:	e5831000 	str	r1, [r3]
    4980:	e12fff1e 	bx	lr
    4984:	000116b0 			; <UNDEFINED> instruction: 0x000116b0
    4988:	000001e8 	andeq	r0, r0, r8, ror #3

0000498c <_isatty>:
    498c:	e59f3028 	ldr	r3, [pc, #40]	; 49bc <_isatty+0x30>
    4990:	e3500005 	cmp	r0, #5
    4994:	e08f3003 	add	r3, pc, r3
    4998:	8a000001 	bhi	49a4 <_isatty+0x18>
    499c:	e3a00001 	mov	r0, #1
    49a0:	e12fff1e 	bx	lr
    49a4:	e59f2014 	ldr	r2, [pc, #20]	; 49c0 <_isatty+0x34>
    49a8:	e3a01009 	mov	r1, #9
    49ac:	e7933002 	ldr	r3, [r3, r2]
    49b0:	e3e00000 	mvn	r0, #0
    49b4:	e5831000 	str	r1, [r3]
    49b8:	e12fff1e 	bx	lr
    49bc:	00011670 	andeq	r1, r1, r0, ror r6
    49c0:	000001e8 	andeq	r0, r0, r8, ror #3

000049c4 <_getpid>:
    49c4:	e59f206c 	ldr	r2, [pc, #108]	; 4a38 <_getpid+0x74>
    49c8:	e59f106c 	ldr	r1, [pc, #108]	; 4a3c <_getpid+0x78>
    49cc:	e92d40b0 	push	{r4, r5, r7, lr}
    49d0:	e59f3068 	ldr	r3, [pc, #104]	; 4a40 <_getpid+0x7c>
    49d4:	e24dd020 	sub	sp, sp, #32
    49d8:	e08f2002 	add	r2, pc, r2
    49dc:	e3a0c002 	mov	ip, #2
    49e0:	e58dc000 	str	ip, [sp]
    49e4:	e7920001 	ldr	r0, [r2, r1]
    49e8:	e3a01085 	mov	r1, #133	; 0x85
    49ec:	e58d0008 	str	r0, [sp, #8]
    49f0:	e58d100c 	str	r1, [sp, #12]
    49f4:	e7923003 	ldr	r3, [r2, r3]
    49f8:	e3a00000 	mov	r0, #0
    49fc:	e58d3010 	str	r3, [sp, #16]
    4a00:	e1a02000 	mov	r2, r0
    4a04:	e1a03000 	mov	r3, r0
    4a08:	e1a04000 	mov	r4, r0
    4a0c:	e1a0100d 	mov	r1, sp
    4a10:	e3a05001 	mov	r5, #1
    4a14:	e1a07005 	mov	r7, r5
    4a18:	ef000001 	svc	0x00000001
    4a1c:	e1500002 	cmp	r0, r2
    4a20:	aa000001 	bge	4a2c <_getpid+0x68>
    4a24:	e1a0700c 	mov	r7, ip
    4a28:	ef000001 	svc	0x00000001
    4a2c:	e3a00001 	mov	r0, #1
    4a30:	e28dd020 	add	sp, sp, #32
    4a34:	e8bd80b0 	pop	{r4, r5, r7, pc}
    4a38:	0001162c 	andeq	r1, r1, ip, lsr #12
    4a3c:	00000194 	muleq	r0, r4, r1
    4a40:	00000198 	muleq	r0, r8, r1

00004a44 <_kill>:
    4a44:	e59fc07c 	ldr	ip, [pc, #124]	; 4ac8 <_kill+0x84>
    4a48:	e59f207c 	ldr	r2, [pc, #124]	; 4acc <_kill+0x88>
    4a4c:	e92d40f0 	push	{r4, r5, r6, r7, lr}
    4a50:	e59f3078 	ldr	r3, [pc, #120]	; 4ad0 <_kill+0x8c>
    4a54:	e24dd024 	sub	sp, sp, #36	; 0x24
    4a58:	e08fc00c 	add	ip, pc, ip
    4a5c:	e3a05002 	mov	r5, #2
    4a60:	e58d5000 	str	r5, [sp]
    4a64:	e79c1002 	ldr	r1, [ip, r2]
    4a68:	e3a0208a 	mov	r2, #138	; 0x8a
    4a6c:	e58d1008 	str	r1, [sp, #8]
    4a70:	e58d200c 	str	r2, [sp, #12]
    4a74:	e79c3003 	ldr	r3, [ip, r3]
    4a78:	e3a00000 	mov	r0, #0
    4a7c:	e58d3010 	str	r3, [sp, #16]
    4a80:	e1a02000 	mov	r2, r0
    4a84:	e1a03000 	mov	r3, r0
    4a88:	e1a04000 	mov	r4, r0
    4a8c:	e1a0100d 	mov	r1, sp
    4a90:	e3a06001 	mov	r6, #1
    4a94:	e1a07006 	mov	r7, r6
    4a98:	ef000001 	svc	0x00000001
    4a9c:	e1500002 	cmp	r0, r2
    4aa0:	aa000001 	bge	4aac <_kill+0x68>
    4aa4:	e1a07005 	mov	r7, r5
    4aa8:	ef000001 	svc	0x00000001
    4aac:	e59f3020 	ldr	r3, [pc, #32]	; 4ad4 <_kill+0x90>
    4ab0:	e3a02016 	mov	r2, #22
    4ab4:	e79c3003 	ldr	r3, [ip, r3]
    4ab8:	e3e00000 	mvn	r0, #0
    4abc:	e5832000 	str	r2, [r3]
    4ac0:	e28dd024 	add	sp, sp, #36	; 0x24
    4ac4:	e8bd80f0 	pop	{r4, r5, r6, r7, pc}
    4ac8:	000115ac 	andeq	r1, r1, ip, lsr #11
    4acc:	00000194 	muleq	r0, r4, r1
    4ad0:	00000198 	muleq	r0, r8, r1
    4ad4:	000001e8 	andeq	r0, r0, r8, ror #3

00004ad8 <_exit>:
    4ad8:	e59f2074 	ldr	r2, [pc, #116]	; 4b54 <_exit+0x7c>
    4adc:	e59f1074 	ldr	r1, [pc, #116]	; 4b58 <_exit+0x80>
    4ae0:	e92d4080 	push	{r7, lr}
    4ae4:	e59f3070 	ldr	r3, [pc, #112]	; 4b5c <_exit+0x84>
    4ae8:	e24dd020 	sub	sp, sp, #32
    4aec:	e08f2002 	add	r2, pc, r2
    4af0:	e3a0c002 	mov	ip, #2
    4af4:	e58dc000 	str	ip, [sp]
    4af8:	e7920001 	ldr	r0, [r2, r1]
    4afc:	e3a01090 	mov	r1, #144	; 0x90
    4b00:	e58d0008 	str	r0, [sp, #8]
    4b04:	e58d100c 	str	r1, [sp, #12]
    4b08:	e7923003 	ldr	r3, [r2, r3]
    4b0c:	e3a00000 	mov	r0, #0
    4b10:	e58d3010 	str	r3, [sp, #16]
    4b14:	e1a02000 	mov	r2, r0
    4b18:	e1a03000 	mov	r3, r0
    4b1c:	e1a04000 	mov	r4, r0
    4b20:	e1a0100d 	mov	r1, sp
    4b24:	e3a05001 	mov	r5, #1
    4b28:	e1a07005 	mov	r7, r5
    4b2c:	ef000001 	svc	0x00000001
    4b30:	e1500002 	cmp	r0, r2
    4b34:	ba000003 	blt	4b48 <_exit+0x70>
    4b38:	e3e0007f 	mvn	r0, #127	; 0x7f
    4b3c:	e1a07000 	mov	r7, r0
    4b40:	ef000001 	svc	0x00000001
    4b44:	eafffffe 	b	4b44 <_exit+0x6c>
    4b48:	e1a0700c 	mov	r7, ip
    4b4c:	ef000001 	svc	0x00000001
    4b50:	eafffff8 	b	4b38 <_exit+0x60>
    4b54:	00011518 	andeq	r1, r1, r8, lsl r5
    4b58:	00000194 	muleq	r0, r4, r1
    4b5c:	00000198 	muleq	r0, r8, r1

00004b60 <_open_r>:
    4b60:	e92d4090 	push	{r4, r7, lr}
    4b64:	e3a0c021 	mov	ip, #33	; 0x21
    4b68:	e3a04000 	mov	r4, #0
    4b6c:	e1a0700c 	mov	r7, ip
    4b70:	ef000001 	svc	0x00000001
    4b74:	e8bd8090 	pop	{r4, r7, pc}

00004b78 <_read_r>:
    4b78:	e92d4090 	push	{r4, r7, lr}
    4b7c:	e3a0c022 	mov	ip, #34	; 0x22
    4b80:	e3a04000 	mov	r4, #0
    4b84:	e1a0700c 	mov	r7, ip
    4b88:	ef000001 	svc	0x00000001
    4b8c:	e8bd8090 	pop	{r4, r7, pc}

00004b90 <_write_r>:
    4b90:	e92d4090 	push	{r4, r7, lr}
    4b94:	e3a0c023 	mov	ip, #35	; 0x23
    4b98:	e3a04000 	mov	r4, #0
    4b9c:	e1a0700c 	mov	r7, ip
    4ba0:	ef000001 	svc	0x00000001
    4ba4:	e8bd8090 	pop	{r4, r7, pc}

00004ba8 <_close_r>:
    4ba8:	e3a02000 	mov	r2, #0
    4bac:	e92d4090 	push	{r4, r7, lr}
    4bb0:	e1a03002 	mov	r3, r2
    4bb4:	e1a04002 	mov	r4, r2
    4bb8:	e3a0c024 	mov	ip, #36	; 0x24
    4bbc:	e1a0700c 	mov	r7, ip
    4bc0:	ef000001 	svc	0x00000001
    4bc4:	e8bd8090 	pop	{r4, r7, pc}

00004bc8 <_lseek_r>:
    4bc8:	e92d4090 	push	{r4, r7, lr}
    4bcc:	e3a0c025 	mov	ip, #37	; 0x25
    4bd0:	e3a04000 	mov	r4, #0
    4bd4:	e1a0700c 	mov	r7, ip
    4bd8:	ef000001 	svc	0x00000001
    4bdc:	e8bd8090 	pop	{r4, r7, pc}

00004be0 <_initialize_ev3api_newlib>:
    4be0:	e59fc1d8 	ldr	ip, [pc, #472]	; 4dc0 <_initialize_ev3api_newlib+0x1e0>
    4be4:	e59f31d8 	ldr	r3, [pc, #472]	; 4dc4 <_initialize_ev3api_newlib+0x1e4>
    4be8:	e08fc00c 	add	ip, pc, ip
    4bec:	e92d43f0 	push	{r4, r5, r6, r7, r8, r9, lr}
    4bf0:	e79c5003 	ldr	r5, [ip, r3]
    4bf4:	e24dd05c 	sub	sp, sp, #92	; 0x5c
    4bf8:	e5953000 	ldr	r3, [r5]
    4bfc:	e3530000 	cmp	r3, #0
    4c00:	0a00001b 	beq	4c74 <_initialize_ev3api_newlib+0x94>
    4c04:	e59f21bc 	ldr	r2, [pc, #444]	; 4dc8 <_initialize_ev3api_newlib+0x1e8>
    4c08:	e3a06002 	mov	r6, #2
    4c0c:	e58d6020 	str	r6, [sp, #32]
    4c10:	e59f31b4 	ldr	r3, [pc, #436]	; 4dcc <_initialize_ev3api_newlib+0x1ec>
    4c14:	e79c1002 	ldr	r1, [ip, r2]
    4c18:	e3a020ba 	mov	r2, #186	; 0xba
    4c1c:	e58d1028 	str	r1, [sp, #40]	; 0x28
    4c20:	e58d202c 	str	r2, [sp, #44]	; 0x2c
    4c24:	e79c3003 	ldr	r3, [ip, r3]
    4c28:	e3a00000 	mov	r0, #0
    4c2c:	e58d3030 	str	r3, [sp, #48]	; 0x30
    4c30:	e1a02000 	mov	r2, r0
    4c34:	e1a03000 	mov	r3, r0
    4c38:	e1a04000 	mov	r4, r0
    4c3c:	e28d1020 	add	r1, sp, #32
    4c40:	e3a08001 	mov	r8, #1
    4c44:	e1a07008 	mov	r7, r8
    4c48:	ef000001 	svc	0x00000001
    4c4c:	e1500002 	cmp	r0, r2
    4c50:	ba000004 	blt	4c68 <_initialize_ev3api_newlib+0x88>
    4c54:	e5953000 	ldr	r3, [r5]
    4c58:	e3530000 	cmp	r3, #0
    4c5c:	0a000004 	beq	4c74 <_initialize_ev3api_newlib+0x94>
    4c60:	e28dd05c 	add	sp, sp, #92	; 0x5c
    4c64:	e8bd83f0 	pop	{r4, r5, r6, r7, r8, r9, pc}
    4c68:	e1a07006 	mov	r7, r6
    4c6c:	ef000001 	svc	0x00000001
    4c70:	eafffff7 	b	4c54 <_initialize_ev3api_newlib+0x74>
    4c74:	e3a01000 	mov	r1, #0
    4c78:	e1a02001 	mov	r2, r1
    4c7c:	e1a03001 	mov	r3, r1
    4c80:	e1a04001 	mov	r4, r1
    4c84:	e28d0020 	add	r0, sp, #32
    4c88:	e3a06018 	mov	r6, #24
    4c8c:	e1a07006 	mov	r7, r6
    4c90:	ef000001 	svc	0x00000001
    4c94:	e3700021 	cmn	r0, #33	; 0x21
    4c98:	0a000033 	beq	4d6c <_initialize_ev3api_newlib+0x18c>
    4c9c:	e3500000 	cmp	r0, #0
    4ca0:	1a000019 	bne	4d0c <_initialize_ev3api_newlib+0x12c>
    4ca4:	e59d0044 	ldr	r0, [sp, #68]	; 0x44
    4ca8:	e3500000 	cmp	r0, #0
    4cac:	e5850000 	str	r0, [r5]
    4cb0:	1affffea 	bne	4c60 <_initialize_ev3api_newlib+0x80>
    4cb4:	e59f210c 	ldr	r2, [pc, #268]	; 4dc8 <_initialize_ev3api_newlib+0x1e8>
    4cb8:	e3a05002 	mov	r5, #2
    4cbc:	e58d5000 	str	r5, [sp]
    4cc0:	e59f3108 	ldr	r3, [pc, #264]	; 4dd0 <_initialize_ev3api_newlib+0x1f0>
    4cc4:	e79c1002 	ldr	r1, [ip, r2]
    4cc8:	e3a020c0 	mov	r2, #192	; 0xc0
    4ccc:	e58d1008 	str	r1, [sp, #8]
    4cd0:	e58d200c 	str	r2, [sp, #12]
    4cd4:	e79c3003 	ldr	r3, [ip, r3]
    4cd8:	e1a0100d 	mov	r1, sp
    4cdc:	e58d3010 	str	r3, [sp, #16]
    4ce0:	e1a02000 	mov	r2, r0
    4ce4:	e1a03000 	mov	r3, r0
    4ce8:	e1a04000 	mov	r4, r0
    4cec:	e3a0c001 	mov	ip, #1
    4cf0:	e1a0700c 	mov	r7, ip
    4cf4:	ef000001 	svc	0x00000001
    4cf8:	e3500000 	cmp	r0, #0
    4cfc:	aaffffd7 	bge	4c60 <_initialize_ev3api_newlib+0x80>
    4d00:	e1a07005 	mov	r7, r5
    4d04:	ef000001 	svc	0x00000001
    4d08:	eaffffd4 	b	4c60 <_initialize_ev3api_newlib+0x80>
    4d0c:	e1a0600d 	mov	r6, sp
    4d10:	e59f20b0 	ldr	r2, [pc, #176]	; 4dc8 <_initialize_ev3api_newlib+0x1e8>
    4d14:	e3a08002 	mov	r8, #2
    4d18:	e58d8000 	str	r8, [sp]
    4d1c:	e59f30b0 	ldr	r3, [pc, #176]	; 4dd4 <_initialize_ev3api_newlib+0x1f4>
    4d20:	e79c1002 	ldr	r1, [ip, r2]
    4d24:	e3a020be 	mov	r2, #190	; 0xbe
    4d28:	e58d1008 	str	r1, [sp, #8]
    4d2c:	e58d200c 	str	r2, [sp, #12]
    4d30:	e79c3003 	ldr	r3, [ip, r3]
    4d34:	e3a00000 	mov	r0, #0
    4d38:	e1a01006 	mov	r1, r6
    4d3c:	e58d3010 	str	r3, [sp, #16]
    4d40:	e1a02000 	mov	r2, r0
    4d44:	e1a03000 	mov	r3, r0
    4d48:	e1a04000 	mov	r4, r0
    4d4c:	e3a06001 	mov	r6, #1
    4d50:	e1a07006 	mov	r7, r6
    4d54:	ef000001 	svc	0x00000001
    4d58:	e1500002 	cmp	r0, r2
    4d5c:	aaffffd0 	bge	4ca4 <_initialize_ev3api_newlib+0xc4>
    4d60:	e1a07008 	mov	r7, r8
    4d64:	ef000001 	svc	0x00000001
    4d68:	eaffffcd 	b	4ca4 <_initialize_ev3api_newlib+0xc4>
    4d6c:	e59fe064 	ldr	lr, [pc, #100]	; 4dd8 <_initialize_ev3api_newlib+0x1f8>
    4d70:	e3a08002 	mov	r8, #2
    4d74:	e58d8000 	str	r8, [sp]
    4d78:	e59f005c 	ldr	r0, [pc, #92]	; 4ddc <_initialize_ev3api_newlib+0x1fc>
    4d7c:	e79c600e 	ldr	r6, [ip, lr]
    4d80:	e3a0e0be 	mov	lr, #190	; 0xbe
    4d84:	e58d6008 	str	r6, [sp, #8]
    4d88:	e58de00c 	str	lr, [sp, #12]
    4d8c:	e79ce000 	ldr	lr, [ip, r0]
    4d90:	e1a0600d 	mov	r6, sp
    4d94:	e1a00001 	mov	r0, r1
    4d98:	e58de010 	str	lr, [sp, #16]
    4d9c:	e1a0100d 	mov	r1, sp
    4da0:	e3a09001 	mov	r9, #1
    4da4:	e1a07009 	mov	r7, r9
    4da8:	ef000001 	svc	0x00000001
    4dac:	e3500000 	cmp	r0, #0
    4db0:	aaffffd6 	bge	4d10 <_initialize_ev3api_newlib+0x130>
    4db4:	e1a07008 	mov	r7, r8
    4db8:	ef000001 	svc	0x00000001
    4dbc:	eaffffd3 	b	4d10 <_initialize_ev3api_newlib+0x130>
    4dc0:	0001141c 	andeq	r1, r1, ip, lsl r4
    4dc4:	000001b0 			; <UNDEFINED> instruction: 0x000001b0
    4dc8:	00000194 	muleq	r0, r4, r1
    4dcc:	0000019c 	muleq	r0, ip, r1
    4dd0:	000001ac 	andeq	r0, r0, ip, lsr #3
    4dd4:	000001a8 	andeq	r0, r0, r8, lsr #3
    4dd8:	000001a0 	andeq	r0, r0, r0, lsr #3
    4ddc:	000001a4 	andeq	r0, r0, r4, lsr #3

00004de0 <_malloc_r>:
    4de0:	e59f2014 	ldr	r2, [pc, #20]	; 4dfc <_malloc_r+0x1c>
    4de4:	e59f3014 	ldr	r3, [pc, #20]	; 4e00 <_malloc_r+0x20>
    4de8:	e08f2002 	add	r2, pc, r2
    4dec:	e7923003 	ldr	r3, [r2, r3]
    4df0:	e1a00001 	mov	r0, r1
    4df4:	e5931000 	ldr	r1, [r3]
    4df8:	eaffedc5 	b	514 <malloc_ex>
    4dfc:	0001121c 	andeq	r1, r1, ip, lsl r2
    4e00:	000001b0 			; <UNDEFINED> instruction: 0x000001b0

00004e04 <_free_r>:
    4e04:	e59f2014 	ldr	r2, [pc, #20]	; 4e20 <_free_r+0x1c>
    4e08:	e59f3014 	ldr	r3, [pc, #20]	; 4e24 <_free_r+0x20>
    4e0c:	e08f2002 	add	r2, pc, r2
    4e10:	e7923003 	ldr	r3, [r2, r3]
    4e14:	e1a00001 	mov	r0, r1
    4e18:	e5931000 	ldr	r1, [r3]
    4e1c:	eaffeeb3 	b	8f0 <free_ex>
    4e20:	000111f8 	strdeq	r1, [r1], -r8
    4e24:	000001b0 			; <UNDEFINED> instruction: 0x000001b0

00004e28 <_calloc_r>:
    4e28:	e59fc018 	ldr	ip, [pc, #24]	; 4e48 <_calloc_r+0x20>
    4e2c:	e59f3018 	ldr	r3, [pc, #24]	; 4e4c <_calloc_r+0x24>
    4e30:	e08fc00c 	add	ip, pc, ip
    4e34:	e79c3003 	ldr	r3, [ip, r3]
    4e38:	e1a00001 	mov	r0, r1
    4e3c:	e1a01002 	mov	r1, r2
    4e40:	e5932000 	ldr	r2, [r3]
    4e44:	eafff1c0 	b	154c <calloc_ex>
    4e48:	000111d4 	ldrdeq	r1, [r1], -r4
    4e4c:	000001b0 			; <UNDEFINED> instruction: 0x000001b0

00004e50 <_realloc_r>:
    4e50:	e59fc018 	ldr	ip, [pc, #24]	; 4e70 <_realloc_r+0x20>
    4e54:	e59f3018 	ldr	r3, [pc, #24]	; 4e74 <_realloc_r+0x24>
    4e58:	e08fc00c 	add	ip, pc, ip
    4e5c:	e79c3003 	ldr	r3, [ip, r3]
    4e60:	e1a00001 	mov	r0, r1
    4e64:	e1a01002 	mov	r1, r2
    4e68:	e5932000 	ldr	r2, [r3]
    4e6c:	eafff046 	b	f8c <realloc_ex>
    4e70:	000111ac 	andeq	r1, r1, ip, lsr #3
    4e74:	000001b0 			; <UNDEFINED> instruction: 0x000001b0

00004e78 <uart_sensor_fetch_data>:
    4e78:	e92d47f0 	push	{r4, r5, r6, r7, r8, r9, sl, lr}
    4e7c:	e59f80d4 	ldr	r8, [pc, #212]	; 4f58 <uart_sensor_fetch_data+0xe0>
    4e80:	e1a06002 	mov	r6, r2
    4e84:	e3a02000 	mov	r2, #0
    4e88:	e1a05003 	mov	r5, r3
    4e8c:	e08f8008 	add	r8, pc, r8
    4e90:	e24dd020 	sub	sp, sp, #32
    4e94:	e1a04002 	mov	r4, r2
    4e98:	e1a03002 	mov	r3, r2
    4e9c:	e1a0c000 	mov	ip, r0
    4ea0:	e3a09016 	mov	r9, #22
    4ea4:	e1a07009 	mov	r7, r9
    4ea8:	ef000001 	svc	0x00000001
    4eac:	e1500002 	cmp	r0, r2
    4eb0:	1a000014 	bne	4f08 <uart_sensor_fetch_data+0x90>
    4eb4:	e59f30a0 	ldr	r3, [pc, #160]	; 4f5c <uart_sensor_fetch_data+0xe4>
    4eb8:	e08cc08c 	add	ip, ip, ip, lsl #1
    4ebc:	e7983003 	ldr	r3, [r8, r3]
    4ec0:	e1a0c10c 	lsl	ip, ip, #2
    4ec4:	e593e000 	ldr	lr, [r3]
    4ec8:	e08e400c 	add	r4, lr, ip
    4ecc:	e5941008 	ldr	r1, [r4, #8]
    4ed0:	e5d13000 	ldrb	r3, [r1]
    4ed4:	e3130008 	tst	r3, #8
    4ed8:	0afffffc 	beq	4ed0 <uart_sensor_fetch_data+0x58>
    4edc:	e3550000 	cmp	r5, #0
    4ee0:	0a000006 	beq	4f00 <uart_sensor_fetch_data+0x88>
    4ee4:	e5941004 	ldr	r1, [r4, #4]
    4ee8:	e79e300c 	ldr	r3, [lr, ip]
    4eec:	e1d110b0 	ldrh	r1, [r1]
    4ef0:	e1a02005 	mov	r2, r5
    4ef4:	e1a00006 	mov	r0, r6
    4ef8:	e0831281 	add	r1, r3, r1, lsl #5
    4efc:	eb001072 	bl	90cc <memcpy>
    4f00:	e28dd020 	add	sp, sp, #32
    4f04:	e8bd87f0 	pop	{r4, r5, r6, r7, r8, r9, sl, pc}
    4f08:	e59f0050 	ldr	r0, [pc, #80]	; 4f60 <uart_sensor_fetch_data+0xe8>
    4f0c:	e3a09002 	mov	r9, #2
    4f10:	e58d9000 	str	r9, [sp]
    4f14:	e59f1048 	ldr	r1, [pc, #72]	; 4f64 <uart_sensor_fetch_data+0xec>
    4f18:	e798e000 	ldr	lr, [r8, r0]
    4f1c:	e3a00037 	mov	r0, #55	; 0x37
    4f20:	e58d000c 	str	r0, [sp, #12]
    4f24:	e58de008 	str	lr, [sp, #8]
    4f28:	e7981001 	ldr	r1, [r8, r1]
    4f2c:	e1a00002 	mov	r0, r2
    4f30:	e58d1010 	str	r1, [sp, #16]
    4f34:	e3a0a001 	mov	sl, #1
    4f38:	e1a0100d 	mov	r1, sp
    4f3c:	e1a0700a 	mov	r7, sl
    4f40:	ef000001 	svc	0x00000001
    4f44:	e1500002 	cmp	r0, r2
    4f48:	aaffffd9 	bge	4eb4 <uart_sensor_fetch_data+0x3c>
    4f4c:	e1a07009 	mov	r7, r9
    4f50:	ef000001 	svc	0x00000001
    4f54:	eaffffd6 	b	4eb4 <uart_sensor_fetch_data+0x3c>
    4f58:	00011178 	andeq	r1, r1, r8, ror r1
    4f5c:	000001e4 	andeq	r0, r0, r4, ror #3
    4f60:	000001b8 			; <UNDEFINED> instruction: 0x000001b8
    4f64:	000001bc 			; <UNDEFINED> instruction: 0x000001bc

00004f68 <_initialize_ev3api_sensor>:
    4f68:	e59fc258 	ldr	ip, [pc, #600]	; 51c8 <_initialize_ev3api_sensor+0x260>
    4f6c:	e59f3258 	ldr	r3, [pc, #600]	; 51cc <_initialize_ev3api_sensor+0x264>
    4f70:	e08fc00c 	add	ip, pc, ip
    4f74:	e92d43f0 	push	{r4, r5, r6, r7, r8, r9, lr}
    4f78:	e79c6003 	ldr	r6, [ip, r3]
    4f7c:	e24dd05c 	sub	sp, sp, #92	; 0x5c
    4f80:	e5965000 	ldr	r5, [r6]
    4f84:	e3550000 	cmp	r5, #0
    4f88:	0a000001 	beq	4f94 <_initialize_ev3api_sensor+0x2c>
    4f8c:	e28dd05c 	add	sp, sp, #92	; 0x5c
    4f90:	e8bd83f0 	pop	{r4, r5, r6, r7, r8, r9, pc}
    4f94:	e5c65004 	strb	r5, [r6, #4]
    4f98:	e5c65005 	strb	r5, [r6, #5]
    4f9c:	e5c65006 	strb	r5, [r6, #6]
    4fa0:	e5c65007 	strb	r5, [r6, #7]
    4fa4:	e28d0020 	add	r0, sp, #32
    4fa8:	e1a01005 	mov	r1, r5
    4fac:	e1a02005 	mov	r2, r5
    4fb0:	e1a03005 	mov	r3, r5
    4fb4:	e1a04005 	mov	r4, r5
    4fb8:	e3a08018 	mov	r8, #24
    4fbc:	e1a07008 	mov	r7, r8
    4fc0:	ef000001 	svc	0x00000001
    4fc4:	e3700021 	cmn	r0, #33	; 0x21
    4fc8:	0a000024 	beq	5060 <_initialize_ev3api_sensor+0xf8>
    4fcc:	e3500000 	cmp	r0, #0
    4fd0:	1a00004d 	bne	510c <_initialize_ev3api_sensor+0x1a4>
    4fd4:	e59d3020 	ldr	r3, [sp, #32]
    4fd8:	e59d0024 	ldr	r0, [sp, #36]	; 0x24
    4fdc:	e59d2028 	ldr	r2, [sp, #40]	; 0x28
    4fe0:	e3530000 	cmp	r3, #0
    4fe4:	e5863000 	str	r3, [r6]
    4fe8:	e5860008 	str	r0, [r6, #8]
    4fec:	e586200c 	str	r2, [r6, #12]
    4ff0:	0a00005d 	beq	516c <_initialize_ev3api_sensor+0x204>
    4ff4:	e3500000 	cmp	r0, #0
    4ff8:	0a000045 	beq	5114 <_initialize_ev3api_sensor+0x1ac>
    4ffc:	e596000c 	ldr	r0, [r6, #12]
    5000:	e3500000 	cmp	r0, #0
    5004:	1affffe0 	bne	4f8c <_initialize_ev3api_sensor+0x24>
    5008:	e59f21c0 	ldr	r2, [pc, #448]	; 51d0 <_initialize_ev3api_sensor+0x268>
    500c:	e3a05002 	mov	r5, #2
    5010:	e58d5000 	str	r5, [sp]
    5014:	e59f31b8 	ldr	r3, [pc, #440]	; 51d4 <_initialize_ev3api_sensor+0x26c>
    5018:	e79c1002 	ldr	r1, [ip, r2]
    501c:	e3a02052 	mov	r2, #82	; 0x52
    5020:	e58d1008 	str	r1, [sp, #8]
    5024:	e58d200c 	str	r2, [sp, #12]
    5028:	e79c3003 	ldr	r3, [ip, r3]
    502c:	e1a0100d 	mov	r1, sp
    5030:	e58d3010 	str	r3, [sp, #16]
    5034:	e1a02000 	mov	r2, r0
    5038:	e1a03000 	mov	r3, r0
    503c:	e1a04000 	mov	r4, r0
    5040:	e3a0c001 	mov	ip, #1
    5044:	e1a0700c 	mov	r7, ip
    5048:	ef000001 	svc	0x00000001
    504c:	e3500000 	cmp	r0, #0
    5050:	aaffffcd 	bge	4f8c <_initialize_ev3api_sensor+0x24>
    5054:	e1a07005 	mov	r7, r5
    5058:	ef000001 	svc	0x00000001
    505c:	eaffffca 	b	4f8c <_initialize_ev3api_sensor+0x24>
    5060:	e59f0170 	ldr	r0, [pc, #368]	; 51d8 <_initialize_ev3api_sensor+0x270>
    5064:	e3a09002 	mov	r9, #2
    5068:	e58d9000 	str	r9, [sp]
    506c:	e59f1168 	ldr	r1, [pc, #360]	; 51dc <_initialize_ev3api_sensor+0x274>
    5070:	e79ce000 	ldr	lr, [ip, r0]
    5074:	e3a000be 	mov	r0, #190	; 0xbe
    5078:	e58d000c 	str	r0, [sp, #12]
    507c:	e58de008 	str	lr, [sp, #8]
    5080:	e79c1001 	ldr	r1, [ip, r1]
    5084:	e1a00005 	mov	r0, r5
    5088:	e58d1010 	str	r1, [sp, #16]
    508c:	e1a0800d 	mov	r8, sp
    5090:	e1a0100d 	mov	r1, sp
    5094:	e3a05001 	mov	r5, #1
    5098:	e1a07005 	mov	r7, r5
    509c:	ef000001 	svc	0x00000001
    50a0:	e3500000 	cmp	r0, #0
    50a4:	aa000001 	bge	50b0 <_initialize_ev3api_sensor+0x148>
    50a8:	e1a07009 	mov	r7, r9
    50ac:	ef000001 	svc	0x00000001
    50b0:	e59f2118 	ldr	r2, [pc, #280]	; 51d0 <_initialize_ev3api_sensor+0x268>
    50b4:	e3a05002 	mov	r5, #2
    50b8:	e58d5000 	str	r5, [sp]
    50bc:	e59f311c 	ldr	r3, [pc, #284]	; 51e0 <_initialize_ev3api_sensor+0x278>
    50c0:	e79c1002 	ldr	r1, [ip, r2]
    50c4:	e3a0204c 	mov	r2, #76	; 0x4c
    50c8:	e58d1008 	str	r1, [sp, #8]
    50cc:	e58d200c 	str	r2, [sp, #12]
    50d0:	e79c3003 	ldr	r3, [ip, r3]
    50d4:	e3a00000 	mov	r0, #0
    50d8:	e1a01008 	mov	r1, r8
    50dc:	e58d3010 	str	r3, [sp, #16]
    50e0:	e1a02000 	mov	r2, r0
    50e4:	e1a03000 	mov	r3, r0
    50e8:	e1a04000 	mov	r4, r0
    50ec:	e3a08001 	mov	r8, #1
    50f0:	e1a07008 	mov	r7, r8
    50f4:	ef000001 	svc	0x00000001
    50f8:	e1500002 	cmp	r0, r2
    50fc:	aaffffb4 	bge	4fd4 <_initialize_ev3api_sensor+0x6c>
    5100:	e1a07005 	mov	r7, r5
    5104:	ef000001 	svc	0x00000001
    5108:	eaffffb1 	b	4fd4 <_initialize_ev3api_sensor+0x6c>
    510c:	e1a0800d 	mov	r8, sp
    5110:	eaffffe6 	b	50b0 <_initialize_ev3api_sensor+0x148>
    5114:	e59f20b4 	ldr	r2, [pc, #180]	; 51d0 <_initialize_ev3api_sensor+0x268>
    5118:	e3a05002 	mov	r5, #2
    511c:	e58d5000 	str	r5, [sp]
    5120:	e59f30bc 	ldr	r3, [pc, #188]	; 51e4 <_initialize_ev3api_sensor+0x27c>
    5124:	e79c1002 	ldr	r1, [ip, r2]
    5128:	e3a02051 	mov	r2, #81	; 0x51
    512c:	e58d1008 	str	r1, [sp, #8]
    5130:	e58d200c 	str	r2, [sp, #12]
    5134:	e79c3003 	ldr	r3, [ip, r3]
    5138:	e1a0100d 	mov	r1, sp
    513c:	e58d3010 	str	r3, [sp, #16]
    5140:	e1a02000 	mov	r2, r0
    5144:	e1a03000 	mov	r3, r0
    5148:	e1a04000 	mov	r4, r0
    514c:	e3a08001 	mov	r8, #1
    5150:	e1a07008 	mov	r7, r8
    5154:	ef000001 	svc	0x00000001
    5158:	e3500000 	cmp	r0, #0
    515c:	aaffffa6 	bge	4ffc <_initialize_ev3api_sensor+0x94>
    5160:	e1a07005 	mov	r7, r5
    5164:	ef000001 	svc	0x00000001
    5168:	eaffffa3 	b	4ffc <_initialize_ev3api_sensor+0x94>
    516c:	e59f105c 	ldr	r1, [pc, #92]	; 51d0 <_initialize_ev3api_sensor+0x268>
    5170:	e3a05002 	mov	r5, #2
    5174:	e58d5000 	str	r5, [sp]
    5178:	e59f2068 	ldr	r2, [pc, #104]	; 51e8 <_initialize_ev3api_sensor+0x280>
    517c:	e79c0001 	ldr	r0, [ip, r1]
    5180:	e3a01050 	mov	r1, #80	; 0x50
    5184:	e58d0008 	str	r0, [sp, #8]
    5188:	e58d100c 	str	r1, [sp, #12]
    518c:	e79c2002 	ldr	r2, [ip, r2]
    5190:	e1a00003 	mov	r0, r3
    5194:	e58d2010 	str	r2, [sp, #16]
    5198:	e1a0100d 	mov	r1, sp
    519c:	e1a02003 	mov	r2, r3
    51a0:	e1a04003 	mov	r4, r3
    51a4:	e3a08001 	mov	r8, #1
    51a8:	e1a07008 	mov	r7, r8
    51ac:	ef000001 	svc	0x00000001
    51b0:	e3500000 	cmp	r0, #0
    51b4:	aa000001 	bge	51c0 <_initialize_ev3api_sensor+0x258>
    51b8:	e1a07005 	mov	r7, r5
    51bc:	ef000001 	svc	0x00000001
    51c0:	e5960008 	ldr	r0, [r6, #8]
    51c4:	eaffff8a 	b	4ff4 <_initialize_ev3api_sensor+0x8c>
    51c8:	00011094 	muleq	r1, r4, r0
    51cc:	000001e4 	andeq	r0, r0, r4, ror #3
    51d0:	000001b8 			; <UNDEFINED> instruction: 0x000001b8
    51d4:	000001d0 	ldrdeq	r0, [r0], -r0	; <UNPREDICTABLE>
    51d8:	000001c0 	andeq	r0, r0, r0, asr #3
    51dc:	000001c4 	andeq	r0, r0, r4, asr #3
    51e0:	000001bc 			; <UNDEFINED> instruction: 0x000001bc
    51e4:	000001cc 	andeq	r0, r0, ip, asr #3
    51e8:	000001c8 	andeq	r0, r0, r8, asr #3

000051ec <ev3_sensor_config>:
    51ec:	e59fc210 	ldr	ip, [pc, #528]	; 5404 <ev3_sensor_config+0x218>
    51f0:	e3500003 	cmp	r0, #3
    51f4:	e92d40f0 	push	{r4, r5, r6, r7, lr}
    51f8:	e08fc00c 	add	ip, pc, ip
    51fc:	e24dd02c 	sub	sp, sp, #44	; 0x2c
    5200:	83e00011 	mvnhi	r0, #17
    5204:	8a00002b 	bhi	52b8 <ev3_sensor_config+0xcc>
    5208:	e59f31f8 	ldr	r3, [pc, #504]	; 5408 <ev3_sensor_config+0x21c>
    520c:	e79c3003 	ldr	r3, [ip, r3]
    5210:	e0833000 	add	r3, r3, r0
    5214:	e5c31004 	strb	r1, [r3, #4]
    5218:	e3510007 	cmp	r1, #7
    521c:	908ff101 	addls	pc, pc, r1, lsl #2
    5220:	ea000058 	b	5388 <ev3_sensor_config+0x19c>
    5224:	ea000022 	b	52b4 <ev3_sensor_config+0xc8>
    5228:	ea000005 	b	5244 <ev3_sensor_config+0x58>
    522c:	ea000004 	b	5244 <ev3_sensor_config+0x58>
    5230:	ea00003d 	b	532c <ev3_sensor_config+0x140>
    5234:	ea000002 	b	5244 <ev3_sensor_config+0x58>
    5238:	ea000001 	b	5244 <ev3_sensor_config+0x58>
    523c:	ea00001f 	b	52c0 <ev3_sensor_config+0xd4>
    5240:	ea00001e 	b	52c0 <ev3_sensor_config+0xd4>
    5244:	e3a01000 	mov	r1, #0
    5248:	e1a02001 	mov	r2, r1
    524c:	e1a03001 	mov	r3, r1
    5250:	e1a04001 	mov	r4, r1
    5254:	e3a05016 	mov	r5, #22
    5258:	e1a07005 	mov	r7, r5
    525c:	ef000001 	svc	0x00000001
    5260:	e1500001 	cmp	r0, r1
    5264:	0a000012 	beq	52b4 <ev3_sensor_config+0xc8>
    5268:	e59fe19c 	ldr	lr, [pc, #412]	; 540c <ev3_sensor_config+0x220>
    526c:	e3a05002 	mov	r5, #2
    5270:	e58d5008 	str	r5, [sp, #8]
    5274:	e59f0194 	ldr	r0, [pc, #404]	; 5410 <ev3_sensor_config+0x224>
    5278:	e79c600e 	ldr	r6, [ip, lr]
    527c:	e3a0e074 	mov	lr, #116	; 0x74
    5280:	e58d6010 	str	r6, [sp, #16]
    5284:	e58de014 	str	lr, [sp, #20]
    5288:	e79cc000 	ldr	ip, [ip, r0]
    528c:	e1a00001 	mov	r0, r1
    5290:	e58dc018 	str	ip, [sp, #24]
    5294:	e28d1008 	add	r1, sp, #8
    5298:	e3a0c001 	mov	ip, #1
    529c:	e1a0700c 	mov	r7, ip
    52a0:	ef000001 	svc	0x00000001
    52a4:	e3500000 	cmp	r0, #0
    52a8:	aa000001 	bge	52b4 <ev3_sensor_config+0xc8>
    52ac:	e1a07005 	mov	r7, r5
    52b0:	ef000001 	svc	0x00000001
    52b4:	e3a00000 	mov	r0, #0
    52b8:	e28dd02c 	add	sp, sp, #44	; 0x2c
    52bc:	e8bd80f0 	pop	{r4, r5, r6, r7, pc}
    52c0:	e3a02000 	mov	r2, #0
    52c4:	e1a03002 	mov	r3, r2
    52c8:	e1a04002 	mov	r4, r2
    52cc:	e3a010ff 	mov	r1, #255	; 0xff
    52d0:	e3a05016 	mov	r5, #22
    52d4:	e1a07005 	mov	r7, r5
    52d8:	ef000001 	svc	0x00000001
    52dc:	e1500002 	cmp	r0, r2
    52e0:	0afffff3 	beq	52b4 <ev3_sensor_config+0xc8>
    52e4:	e59f0120 	ldr	r0, [pc, #288]	; 540c <ev3_sensor_config+0x220>
    52e8:	e3a05002 	mov	r5, #2
    52ec:	e58d5008 	str	r5, [sp, #8]
    52f0:	e59f1118 	ldr	r1, [pc, #280]	; 5410 <ev3_sensor_config+0x224>
    52f4:	e79ce000 	ldr	lr, [ip, r0]
    52f8:	e3a0007c 	mov	r0, #124	; 0x7c
    52fc:	e58d0014 	str	r0, [sp, #20]
    5300:	e58de010 	str	lr, [sp, #16]
    5304:	e79c1001 	ldr	r1, [ip, r1]
    5308:	e1a00002 	mov	r0, r2
    530c:	e58d1018 	str	r1, [sp, #24]
    5310:	e3a0c001 	mov	ip, #1
    5314:	e28d1008 	add	r1, sp, #8
    5318:	e1a0700c 	mov	r7, ip
    531c:	ef000001 	svc	0x00000001
    5320:	e1500002 	cmp	r0, r2
    5324:	aaffffe2 	bge	52b4 <ev3_sensor_config+0xc8>
    5328:	eaffffdf 	b	52ac <ev3_sensor_config+0xc0>
    532c:	e3a01000 	mov	r1, #0
    5330:	e1a02001 	mov	r2, r1
    5334:	e1a03001 	mov	r3, r1
    5338:	e1a04001 	mov	r4, r1
    533c:	e3a05016 	mov	r5, #22
    5340:	e1a07005 	mov	r7, r5
    5344:	ef000001 	svc	0x00000001
    5348:	e1500001 	cmp	r0, r1
    534c:	1a000018 	bne	53b4 <ev3_sensor_config+0x1c8>
    5350:	e28d0004 	add	r0, sp, #4
    5354:	e3e0105c 	mvn	r1, #92	; 0x5c
    5358:	e1a07001 	mov	r7, r1
    535c:	ef000001 	svc	0x00000001
    5360:	e28dc008 	add	ip, sp, #8
    5364:	e1a0000c 	mov	r0, ip
    5368:	e1a07001 	mov	r7, r1
    536c:	ef000001 	svc	0x00000001
    5370:	e99d000c 	ldmib	sp, {r2, r3}
    5374:	e0623003 	rsb	r3, r2, r3
    5378:	e3530001 	cmp	r3, #1
    537c:	9afffff8 	bls	5364 <ev3_sensor_config+0x178>
    5380:	e3a00000 	mov	r0, #0
    5384:	eaffffcb 	b	52b8 <ev3_sensor_config+0xcc>
    5388:	e59f2084 	ldr	r2, [pc, #132]	; 5414 <ev3_sensor_config+0x228>
    538c:	e59f3084 	ldr	r3, [pc, #132]	; 5418 <ev3_sensor_config+0x22c>
    5390:	e79c0002 	ldr	r0, [ip, r2]
    5394:	e79c2003 	ldr	r2, [ip, r3]
    5398:	e1a03001 	mov	r3, r1
    539c:	e1a01000 	mov	r1, r0
    53a0:	e3a00003 	mov	r0, #3
    53a4:	ebffebdf 	bl	328 <syslog>
    53a8:	e3e00010 	mvn	r0, #16
    53ac:	e28dd02c 	add	sp, sp, #44	; 0x2c
    53b0:	e8bd80f0 	pop	{r4, r5, r6, r7, pc}
    53b4:	e59fe050 	ldr	lr, [pc, #80]	; 540c <ev3_sensor_config+0x220>
    53b8:	e3a05002 	mov	r5, #2
    53bc:	e58d5008 	str	r5, [sp, #8]
    53c0:	e59f0048 	ldr	r0, [pc, #72]	; 5410 <ev3_sensor_config+0x224>
    53c4:	e79c600e 	ldr	r6, [ip, lr]
    53c8:	e3a0e066 	mov	lr, #102	; 0x66
    53cc:	e58d6010 	str	r6, [sp, #16]
    53d0:	e58de014 	str	lr, [sp, #20]
    53d4:	e79cc000 	ldr	ip, [ip, r0]
    53d8:	e1a00001 	mov	r0, r1
    53dc:	e58dc018 	str	ip, [sp, #24]
    53e0:	e28d1008 	add	r1, sp, #8
    53e4:	e3a0c001 	mov	ip, #1
    53e8:	e1a0700c 	mov	r7, ip
    53ec:	ef000001 	svc	0x00000001
    53f0:	e1500002 	cmp	r0, r2
    53f4:	aaffffd5 	bge	5350 <ev3_sensor_config+0x164>
    53f8:	e1a07005 	mov	r7, r5
    53fc:	ef000001 	svc	0x00000001
    5400:	eaffffd2 	b	5350 <ev3_sensor_config+0x164>
    5404:	00010e0c 	andeq	r0, r1, ip, lsl #28
    5408:	000001e4 	andeq	r0, r0, r4, ror #3
    540c:	000001b8 			; <UNDEFINED> instruction: 0x000001b8
    5410:	000001bc 			; <UNDEFINED> instruction: 0x000001bc
    5414:	000001d4 	ldrdeq	r0, [r0], -r4
    5418:	000001b4 			; <UNDEFINED> instruction: 0x000001b4

0000541c <ev3_sensor_get_type>:
    541c:	e59f3024 	ldr	r3, [pc, #36]	; 5448 <ev3_sensor_get_type+0x2c>
    5420:	e3500003 	cmp	r0, #3
    5424:	e08f3003 	add	r3, pc, r3
    5428:	8a000004 	bhi	5440 <ev3_sensor_get_type+0x24>
    542c:	e59f2018 	ldr	r2, [pc, #24]	; 544c <ev3_sensor_get_type+0x30>
    5430:	e7933002 	ldr	r3, [r3, r2]
    5434:	e0830000 	add	r0, r3, r0
    5438:	e5d00004 	ldrb	r0, [r0, #4]
    543c:	e12fff1e 	bx	lr
    5440:	e3e00011 	mvn	r0, #17
    5444:	e12fff1e 	bx	lr
    5448:	00010be0 	andeq	r0, r1, r0, ror #23
    544c:	000001e4 	andeq	r0, r0, r4, ror #3

00005450 <ev3_color_sensor_get_color>:
    5450:	e92d40b0 	push	{r4, r5, r7, lr}
    5454:	e59f40d0 	ldr	r4, [pc, #208]	; 552c <ev3_color_sensor_get_color+0xdc>
    5458:	e3500003 	cmp	r0, #3
    545c:	e24dd028 	sub	sp, sp, #40	; 0x28
    5460:	e1a05000 	mov	r5, r0
    5464:	e08f4004 	add	r4, pc, r4
    5468:	8a00000d 	bhi	54a4 <ev3_color_sensor_get_color+0x54>
    546c:	ebffffea 	bl	541c <ev3_sensor_get_type>
    5470:	e3500004 	cmp	r0, #4
    5474:	13e03028 	mvnne	r3, #40	; 0x28
    5478:	0a00000b 	beq	54ac <ev3_color_sensor_get_color+0x5c>
    547c:	e59f20ac 	ldr	r2, [pc, #172]	; 5530 <ev3_color_sensor_get_color+0xe0>
    5480:	e59f10ac 	ldr	r1, [pc, #172]	; 5534 <ev3_color_sensor_get_color+0xe4>
    5484:	e7942002 	ldr	r2, [r4, r2]
    5488:	e3a00004 	mov	r0, #4
    548c:	e7941001 	ldr	r1, [r4, r1]
    5490:	e2822014 	add	r2, r2, #20
    5494:	ebffeba3 	bl	328 <syslog>
    5498:	e3a00000 	mov	r0, #0
    549c:	e28dd028 	add	sp, sp, #40	; 0x28
    54a0:	e8bd80b0 	pop	{r4, r5, r7, pc}
    54a4:	e3e03011 	mvn	r3, #17
    54a8:	eafffff3 	b	547c <ev3_color_sensor_get_color+0x2c>
    54ac:	e1a00005 	mov	r0, r5
    54b0:	e3a01002 	mov	r1, #2
    54b4:	e28d2007 	add	r2, sp, #7
    54b8:	e3a03001 	mov	r3, #1
    54bc:	ebfffe6d 	bl	4e78 <uart_sensor_fetch_data>
    54c0:	e5dd0007 	ldrb	r0, [sp, #7]
    54c4:	e3500007 	cmp	r0, #7
    54c8:	9afffff3 	bls	549c <ev3_color_sensor_get_color+0x4c>
    54cc:	e59f2064 	ldr	r2, [pc, #100]	; 5538 <ev3_color_sensor_get_color+0xe8>
    54d0:	e3a0c002 	mov	ip, #2
    54d4:	e58dc008 	str	ip, [sp, #8]
    54d8:	e59f305c 	ldr	r3, [pc, #92]	; 553c <ev3_color_sensor_get_color+0xec>
    54dc:	e7941002 	ldr	r1, [r4, r2]
    54e0:	e3a020a6 	mov	r2, #166	; 0xa6
    54e4:	e58d1010 	str	r1, [sp, #16]
    54e8:	e58d2014 	str	r2, [sp, #20]
    54ec:	e7943003 	ldr	r3, [r4, r3]
    54f0:	e3a00000 	mov	r0, #0
    54f4:	e58d3018 	str	r3, [sp, #24]
    54f8:	e1a02000 	mov	r2, r0
    54fc:	e1a03000 	mov	r3, r0
    5500:	e1a04000 	mov	r4, r0
    5504:	e28d1008 	add	r1, sp, #8
    5508:	e3a05001 	mov	r5, #1
    550c:	e1a07005 	mov	r7, r5
    5510:	ef000001 	svc	0x00000001
    5514:	e1500002 	cmp	r0, r2
    5518:	aa000001 	bge	5524 <ev3_color_sensor_get_color+0xd4>
    551c:	e1a0700c 	mov	r7, ip
    5520:	ef000001 	svc	0x00000001
    5524:	e5dd0007 	ldrb	r0, [sp, #7]
    5528:	eaffffdb 	b	549c <ev3_color_sensor_get_color+0x4c>
    552c:	00010ba0 	andeq	r0, r1, r0, lsr #23
    5530:	000001b4 			; <UNDEFINED> instruction: 0x000001b4
    5534:	000001dc 	ldrdeq	r0, [r0], -ip
    5538:	000001b8 			; <UNDEFINED> instruction: 0x000001b8
    553c:	000001d8 	ldrdeq	r0, [r0], -r8

00005540 <ev3_color_sensor_get_reflect>:
    5540:	e92d4030 	push	{r4, r5, lr}
    5544:	e59f406c 	ldr	r4, [pc, #108]	; 55b8 <ev3_color_sensor_get_reflect+0x78>
    5548:	e3500003 	cmp	r0, #3
    554c:	e24dd00c 	sub	sp, sp, #12
    5550:	e1a05000 	mov	r5, r0
    5554:	e08f4004 	add	r4, pc, r4
    5558:	8a00000d 	bhi	5594 <ev3_color_sensor_get_reflect+0x54>
    555c:	ebffffae 	bl	541c <ev3_sensor_get_type>
    5560:	e3500004 	cmp	r0, #4
    5564:	13e03028 	mvnne	r3, #40	; 0x28
    5568:	0a00000b 	beq	559c <ev3_color_sensor_get_reflect+0x5c>
    556c:	e59f2048 	ldr	r2, [pc, #72]	; 55bc <ev3_color_sensor_get_reflect+0x7c>
    5570:	e59f1048 	ldr	r1, [pc, #72]	; 55c0 <ev3_color_sensor_get_reflect+0x80>
    5574:	e7942002 	ldr	r2, [r4, r2]
    5578:	e3a00004 	mov	r0, #4
    557c:	e7941001 	ldr	r1, [r4, r1]
    5580:	e2822030 	add	r2, r2, #48	; 0x30
    5584:	ebffeb67 	bl	328 <syslog>
    5588:	e3a00000 	mov	r0, #0
    558c:	e28dd00c 	add	sp, sp, #12
    5590:	e8bd8030 	pop	{r4, r5, pc}
    5594:	e3e03011 	mvn	r3, #17
    5598:	eafffff3 	b	556c <ev3_color_sensor_get_reflect+0x2c>
    559c:	e1a00005 	mov	r0, r5
    55a0:	e3a01000 	mov	r1, #0
    55a4:	e28d2007 	add	r2, sp, #7
    55a8:	e3a03001 	mov	r3, #1
    55ac:	ebfffe31 	bl	4e78 <uart_sensor_fetch_data>
    55b0:	e5dd0007 	ldrb	r0, [sp, #7]
    55b4:	eafffff4 	b	558c <ev3_color_sensor_get_reflect+0x4c>
    55b8:	00010ab0 			; <UNDEFINED> instruction: 0x00010ab0
    55bc:	000001b4 			; <UNDEFINED> instruction: 0x000001b4
    55c0:	000001dc 	ldrdeq	r0, [r0], -ip

000055c4 <ev3_color_sensor_get_ambient>:
    55c4:	e92d4030 	push	{r4, r5, lr}
    55c8:	e59f406c 	ldr	r4, [pc, #108]	; 563c <ev3_color_sensor_get_ambient+0x78>
    55cc:	e3500003 	cmp	r0, #3
    55d0:	e24dd00c 	sub	sp, sp, #12
    55d4:	e1a05000 	mov	r5, r0
    55d8:	e08f4004 	add	r4, pc, r4
    55dc:	8a00000d 	bhi	5618 <ev3_color_sensor_get_ambient+0x54>
    55e0:	ebffff8d 	bl	541c <ev3_sensor_get_type>
    55e4:	e3500004 	cmp	r0, #4
    55e8:	13e03028 	mvnne	r3, #40	; 0x28
    55ec:	0a00000b 	beq	5620 <ev3_color_sensor_get_ambient+0x5c>
    55f0:	e59f2048 	ldr	r2, [pc, #72]	; 5640 <ev3_color_sensor_get_ambient+0x7c>
    55f4:	e59f1048 	ldr	r1, [pc, #72]	; 5644 <ev3_color_sensor_get_ambient+0x80>
    55f8:	e7942002 	ldr	r2, [r4, r2]
    55fc:	e3a00004 	mov	r0, #4
    5600:	e7941001 	ldr	r1, [r4, r1]
    5604:	e2822050 	add	r2, r2, #80	; 0x50
    5608:	ebffeb46 	bl	328 <syslog>
    560c:	e3a00000 	mov	r0, #0
    5610:	e28dd00c 	add	sp, sp, #12
    5614:	e8bd8030 	pop	{r4, r5, pc}
    5618:	e3e03011 	mvn	r3, #17
    561c:	eafffff3 	b	55f0 <ev3_color_sensor_get_ambient+0x2c>
    5620:	e3a01001 	mov	r1, #1
    5624:	e1a00005 	mov	r0, r5
    5628:	e1a03001 	mov	r3, r1
    562c:	e28d2007 	add	r2, sp, #7
    5630:	ebfffe10 	bl	4e78 <uart_sensor_fetch_data>
    5634:	e5dd0007 	ldrb	r0, [sp, #7]
    5638:	eafffff4 	b	5610 <ev3_color_sensor_get_ambient+0x4c>
    563c:	00010a2c 	andeq	r0, r1, ip, lsr #20
    5640:	000001b4 			; <UNDEFINED> instruction: 0x000001b4
    5644:	000001dc 	ldrdeq	r0, [r0], -ip

00005648 <ev3_color_sensor_get_rgb_raw>:
    5648:	e92d4070 	push	{r4, r5, r6, lr}
    564c:	e59f4060 	ldr	r4, [pc, #96]	; 56b4 <ev3_color_sensor_get_rgb_raw+0x6c>
    5650:	e3500003 	cmp	r0, #3
    5654:	e08f4004 	add	r4, pc, r4
    5658:	8a00000e 	bhi	5698 <ev3_color_sensor_get_rgb_raw+0x50>
    565c:	e1a06001 	mov	r6, r1
    5660:	e1a05000 	mov	r5, r0
    5664:	ebffff6c 	bl	541c <ev3_sensor_get_type>
    5668:	e3500004 	cmp	r0, #4
    566c:	e1a01000 	mov	r1, r0
    5670:	13e03028 	mvnne	r3, #40	; 0x28
    5674:	0a000009 	beq	56a0 <ev3_color_sensor_get_rgb_raw+0x58>
    5678:	e59f2038 	ldr	r2, [pc, #56]	; 56b8 <ev3_color_sensor_get_rgb_raw+0x70>
    567c:	e59f1038 	ldr	r1, [pc, #56]	; 56bc <ev3_color_sensor_get_rgb_raw+0x74>
    5680:	e7942002 	ldr	r2, [r4, r2]
    5684:	e7941001 	ldr	r1, [r4, r1]
    5688:	e2822070 	add	r2, r2, #112	; 0x70
    568c:	e3a00004 	mov	r0, #4
    5690:	e8bd4070 	pop	{r4, r5, r6, lr}
    5694:	eaffeb23 	b	328 <syslog>
    5698:	e3e03011 	mvn	r3, #17
    569c:	eafffff5 	b	5678 <ev3_color_sensor_get_rgb_raw+0x30>
    56a0:	e1a00005 	mov	r0, r5
    56a4:	e1a02006 	mov	r2, r6
    56a8:	e3a03006 	mov	r3, #6
    56ac:	e8bd4070 	pop	{r4, r5, r6, lr}
    56b0:	eafffdf0 	b	4e78 <uart_sensor_fetch_data>
    56b4:	000109b0 			; <UNDEFINED> instruction: 0x000109b0
    56b8:	000001b4 			; <UNDEFINED> instruction: 0x000001b4
    56bc:	000001dc 	ldrdeq	r0, [r0], -ip

000056c0 <ev3_gyro_sensor_get_angle>:
    56c0:	e92d4030 	push	{r4, r5, lr}
    56c4:	e59f4074 	ldr	r4, [pc, #116]	; 5740 <ev3_gyro_sensor_get_angle+0x80>
    56c8:	e3500003 	cmp	r0, #3
    56cc:	e24dd00c 	sub	sp, sp, #12
    56d0:	e1a05000 	mov	r5, r0
    56d4:	e08f4004 	add	r4, pc, r4
    56d8:	8a000010 	bhi	5720 <ev3_gyro_sensor_get_angle+0x60>
    56dc:	ebffff4e 	bl	541c <ev3_sensor_get_type>
    56e0:	e3500002 	cmp	r0, #2
    56e4:	e1a03000 	mov	r3, r0
    56e8:	13e03028 	mvnne	r3, #40	; 0x28
    56ec:	0a00000d 	beq	5728 <ev3_gyro_sensor_get_angle+0x68>
    56f0:	e59f204c 	ldr	r2, [pc, #76]	; 5744 <ev3_gyro_sensor_get_angle+0x84>
    56f4:	e59f104c 	ldr	r1, [pc, #76]	; 5748 <ev3_gyro_sensor_get_angle+0x88>
    56f8:	e7942002 	ldr	r2, [r4, r2]
    56fc:	e3a00004 	mov	r0, #4
    5700:	e7941001 	ldr	r1, [r4, r1]
    5704:	e2822090 	add	r2, r2, #144	; 0x90
    5708:	ebffeb06 	bl	328 <syslog>
    570c:	e3a00000 	mov	r0, #0
    5710:	e1a00800 	lsl	r0, r0, #16
    5714:	e1a00840 	asr	r0, r0, #16
    5718:	e28dd00c 	add	sp, sp, #12
    571c:	e8bd8030 	pop	{r4, r5, pc}
    5720:	e3e03011 	mvn	r3, #17
    5724:	eafffff1 	b	56f0 <ev3_gyro_sensor_get_angle+0x30>
    5728:	e1a00005 	mov	r0, r5
    572c:	e3a01000 	mov	r1, #0
    5730:	e28d2006 	add	r2, sp, #6
    5734:	ebfffdcf 	bl	4e78 <uart_sensor_fetch_data>
    5738:	e1dd00b6 	ldrh	r0, [sp, #6]
    573c:	eafffff3 	b	5710 <ev3_gyro_sensor_get_angle+0x50>
    5740:	00010930 	andeq	r0, r1, r0, lsr r9
    5744:	000001b4 			; <UNDEFINED> instruction: 0x000001b4
    5748:	000001dc 	ldrdeq	r0, [r0], -ip

0000574c <ev3_gyro_sensor_get_rate>:
    574c:	e92d4030 	push	{r4, r5, lr}
    5750:	e59f4074 	ldr	r4, [pc, #116]	; 57cc <ev3_gyro_sensor_get_rate+0x80>
    5754:	e3500003 	cmp	r0, #3
    5758:	e24dd00c 	sub	sp, sp, #12
    575c:	e1a05000 	mov	r5, r0
    5760:	e08f4004 	add	r4, pc, r4
    5764:	8a000010 	bhi	57ac <ev3_gyro_sensor_get_rate+0x60>
    5768:	ebffff2b 	bl	541c <ev3_sensor_get_type>
    576c:	e3500002 	cmp	r0, #2
    5770:	e1a03000 	mov	r3, r0
    5774:	13e03028 	mvnne	r3, #40	; 0x28
    5778:	0a00000d 	beq	57b4 <ev3_gyro_sensor_get_rate+0x68>
    577c:	e59f204c 	ldr	r2, [pc, #76]	; 57d0 <ev3_gyro_sensor_get_rate+0x84>
    5780:	e59f104c 	ldr	r1, [pc, #76]	; 57d4 <ev3_gyro_sensor_get_rate+0x88>
    5784:	e7942002 	ldr	r2, [r4, r2]
    5788:	e3a00004 	mov	r0, #4
    578c:	e7941001 	ldr	r1, [r4, r1]
    5790:	e28220ac 	add	r2, r2, #172	; 0xac
    5794:	ebffeae3 	bl	328 <syslog>
    5798:	e3a00000 	mov	r0, #0
    579c:	e1a00800 	lsl	r0, r0, #16
    57a0:	e1a00840 	asr	r0, r0, #16
    57a4:	e28dd00c 	add	sp, sp, #12
    57a8:	e8bd8030 	pop	{r4, r5, pc}
    57ac:	e3e03011 	mvn	r3, #17
    57b0:	eafffff1 	b	577c <ev3_gyro_sensor_get_rate+0x30>
    57b4:	e1a00005 	mov	r0, r5
    57b8:	e3a01001 	mov	r1, #1
    57bc:	e28d2006 	add	r2, sp, #6
    57c0:	ebfffdac 	bl	4e78 <uart_sensor_fetch_data>
    57c4:	e1dd00b6 	ldrh	r0, [sp, #6]
    57c8:	eafffff3 	b	579c <ev3_gyro_sensor_get_rate+0x50>
    57cc:	000108a4 	andeq	r0, r1, r4, lsr #17
    57d0:	000001b4 			; <UNDEFINED> instruction: 0x000001b4
    57d4:	000001dc 	ldrdeq	r0, [r0], -ip

000057d8 <ev3_gyro_sensor_reset>:
    57d8:	e92d4038 	push	{r3, r4, r5, lr}
    57dc:	e59f5068 	ldr	r5, [pc, #104]	; 584c <ev3_gyro_sensor_reset+0x74>
    57e0:	e3500003 	cmp	r0, #3
    57e4:	e1a04000 	mov	r4, r0
    57e8:	e08f5005 	add	r5, pc, r5
    57ec:	8a00000d 	bhi	5828 <ev3_gyro_sensor_reset+0x50>
    57f0:	ebffff09 	bl	541c <ev3_sensor_get_type>
    57f4:	e3500002 	cmp	r0, #2
    57f8:	13e04028 	mvnne	r4, #40	; 0x28
    57fc:	0a00000b 	beq	5830 <ev3_gyro_sensor_reset+0x58>
    5800:	e59f2048 	ldr	r2, [pc, #72]	; 5850 <ev3_gyro_sensor_reset+0x78>
    5804:	e59f3048 	ldr	r3, [pc, #72]	; 5854 <ev3_gyro_sensor_reset+0x7c>
    5808:	e7951002 	ldr	r1, [r5, r2]
    580c:	e7952003 	ldr	r2, [r5, r3]
    5810:	e3a00004 	mov	r0, #4
    5814:	e28220c8 	add	r2, r2, #200	; 0xc8
    5818:	e1a03004 	mov	r3, r4
    581c:	ebffeac1 	bl	328 <syslog>
    5820:	e1a00004 	mov	r0, r4
    5824:	e8bd8038 	pop	{r3, r4, r5, pc}
    5828:	e3e04011 	mvn	r4, #17
    582c:	eafffff3 	b	5800 <ev3_gyro_sensor_reset+0x28>
    5830:	e3a02000 	mov	r2, #0
    5834:	e1a00004 	mov	r0, r4
    5838:	e1a03002 	mov	r3, r2
    583c:	e3a01004 	mov	r1, #4
    5840:	ebfffd8c 	bl	4e78 <uart_sensor_fetch_data>
    5844:	e3a00000 	mov	r0, #0
    5848:	e8bd8038 	pop	{r3, r4, r5, pc}
    584c:	0001081c 	andeq	r0, r1, ip, lsl r8
    5850:	000001dc 	ldrdeq	r0, [r0], -ip
    5854:	000001b4 			; <UNDEFINED> instruction: 0x000001b4

00005858 <ev3_ultrasonic_sensor_get_distance>:
    5858:	e92d4030 	push	{r4, r5, lr}
    585c:	e59f408c 	ldr	r4, [pc, #140]	; 58f0 <ev3_ultrasonic_sensor_get_distance+0x98>
    5860:	e3500003 	cmp	r0, #3
    5864:	e24dd00c 	sub	sp, sp, #12
    5868:	e1a05000 	mov	r5, r0
    586c:	e08f4004 	add	r4, pc, r4
    5870:	8a00000f 	bhi	58b4 <ev3_ultrasonic_sensor_get_distance+0x5c>
    5874:	ebfffee8 	bl	541c <ev3_sensor_get_type>
    5878:	e3500001 	cmp	r0, #1
    587c:	13e03028 	mvnne	r3, #40	; 0x28
    5880:	0a00000d 	beq	58bc <ev3_ultrasonic_sensor_get_distance+0x64>
    5884:	e59f2068 	ldr	r2, [pc, #104]	; 58f4 <ev3_ultrasonic_sensor_get_distance+0x9c>
    5888:	e59f1068 	ldr	r1, [pc, #104]	; 58f8 <ev3_ultrasonic_sensor_get_distance+0xa0>
    588c:	e7942002 	ldr	r2, [r4, r2]
    5890:	e3a00004 	mov	r0, #4
    5894:	e7941001 	ldr	r1, [r4, r1]
    5898:	e28220e0 	add	r2, r2, #224	; 0xe0
    589c:	ebffeaa1 	bl	328 <syslog>
    58a0:	e3a00000 	mov	r0, #0
    58a4:	e1a00800 	lsl	r0, r0, #16
    58a8:	e1a00840 	asr	r0, r0, #16
    58ac:	e28dd00c 	add	sp, sp, #12
    58b0:	e8bd8030 	pop	{r4, r5, pc}
    58b4:	e3e03011 	mvn	r3, #17
    58b8:	eafffff1 	b	5884 <ev3_ultrasonic_sensor_get_distance+0x2c>
    58bc:	e1a00005 	mov	r0, r5
    58c0:	e3a01000 	mov	r1, #0
    58c4:	e28d2006 	add	r2, sp, #6
    58c8:	e3a03002 	mov	r3, #2
    58cc:	ebfffd69 	bl	4e78 <uart_sensor_fetch_data>
    58d0:	e1dd00f6 	ldrsh	r0, [sp, #6]
    58d4:	e59f2020 	ldr	r2, [pc, #32]	; 58fc <ev3_ultrasonic_sensor_get_distance+0xa4>
    58d8:	e1a03fc0 	asr	r3, r0, #31
    58dc:	e0c01092 	smull	r1, r0, r2, r0
    58e0:	e0630140 	rsb	r0, r3, r0, asr #2
    58e4:	e1a00800 	lsl	r0, r0, #16
    58e8:	e1a00820 	lsr	r0, r0, #16
    58ec:	eaffffec 	b	58a4 <ev3_ultrasonic_sensor_get_distance+0x4c>
    58f0:	00010798 	muleq	r1, r8, r7
    58f4:	000001b4 			; <UNDEFINED> instruction: 0x000001b4
    58f8:	000001dc 	ldrdeq	r0, [r0], -ip
    58fc:	66666667 	strbtvs	r6, [r6], -r7, ror #12

00005900 <ev3_ultrasonic_sensor_listen>:
    5900:	e92d4030 	push	{r4, r5, lr}
    5904:	e59f406c 	ldr	r4, [pc, #108]	; 5978 <ev3_ultrasonic_sensor_listen+0x78>
    5908:	e3500003 	cmp	r0, #3
    590c:	e24dd00c 	sub	sp, sp, #12
    5910:	e1a05000 	mov	r5, r0
    5914:	e08f4004 	add	r4, pc, r4
    5918:	8a00000e 	bhi	5958 <ev3_ultrasonic_sensor_listen+0x58>
    591c:	ebfffebe 	bl	541c <ev3_sensor_get_type>
    5920:	e3500001 	cmp	r0, #1
    5924:	e1a03000 	mov	r3, r0
    5928:	13e03028 	mvnne	r3, #40	; 0x28
    592c:	0a00000b 	beq	5960 <ev3_ultrasonic_sensor_listen+0x60>
    5930:	e59f2044 	ldr	r2, [pc, #68]	; 597c <ev3_ultrasonic_sensor_listen+0x7c>
    5934:	e59f1044 	ldr	r1, [pc, #68]	; 5980 <ev3_ultrasonic_sensor_listen+0x80>
    5938:	e7942002 	ldr	r2, [r4, r2]
    593c:	e3a00004 	mov	r0, #4
    5940:	e7941001 	ldr	r1, [r4, r1]
    5944:	e2822f41 	add	r2, r2, #260	; 0x104
    5948:	ebffea76 	bl	328 <syslog>
    594c:	e3a00000 	mov	r0, #0
    5950:	e28dd00c 	add	sp, sp, #12
    5954:	e8bd8030 	pop	{r4, r5, pc}
    5958:	e3e03011 	mvn	r3, #17
    595c:	eafffff3 	b	5930 <ev3_ultrasonic_sensor_listen+0x30>
    5960:	e1a00005 	mov	r0, r5
    5964:	e3a01002 	mov	r1, #2
    5968:	e28d2007 	add	r2, sp, #7
    596c:	ebfffd41 	bl	4e78 <uart_sensor_fetch_data>
    5970:	e5dd0007 	ldrb	r0, [sp, #7]
    5974:	eafffff5 	b	5950 <ev3_ultrasonic_sensor_listen+0x50>
    5978:	000106f0 	strdeq	r0, [r1], -r0	; <UNPREDICTABLE>
    597c:	000001b4 			; <UNDEFINED> instruction: 0x000001b4
    5980:	000001dc 	ldrdeq	r0, [r0], -ip

00005984 <ev3_infrared_sensor_get_distance>:
    5984:	e92d4030 	push	{r4, r5, lr}
    5988:	e59f4074 	ldr	r4, [pc, #116]	; 5a04 <ev3_infrared_sensor_get_distance+0x80>
    598c:	e3500003 	cmp	r0, #3
    5990:	e24dd00c 	sub	sp, sp, #12
    5994:	e1a05000 	mov	r5, r0
    5998:	e08f4004 	add	r4, pc, r4
    599c:	8a00000f 	bhi	59e0 <ev3_infrared_sensor_get_distance+0x5c>
    59a0:	ebfffe9d 	bl	541c <ev3_sensor_get_type>
    59a4:	e3500005 	cmp	r0, #5
    59a8:	13e03028 	mvnne	r3, #40	; 0x28
    59ac:	0a00000d 	beq	59e8 <ev3_infrared_sensor_get_distance+0x64>
    59b0:	e59f2050 	ldr	r2, [pc, #80]	; 5a08 <ev3_infrared_sensor_get_distance+0x84>
    59b4:	e59f1050 	ldr	r1, [pc, #80]	; 5a0c <ev3_infrared_sensor_get_distance+0x88>
    59b8:	e7942002 	ldr	r2, [r4, r2]
    59bc:	e3a00004 	mov	r0, #4
    59c0:	e7941001 	ldr	r1, [r4, r1]
    59c4:	e2822f49 	add	r2, r2, #292	; 0x124
    59c8:	ebffea56 	bl	328 <syslog>
    59cc:	e3a00000 	mov	r0, #0
    59d0:	e1a00c00 	lsl	r0, r0, #24
    59d4:	e1a00c40 	asr	r0, r0, #24
    59d8:	e28dd00c 	add	sp, sp, #12
    59dc:	e8bd8030 	pop	{r4, r5, pc}
    59e0:	e3e03011 	mvn	r3, #17
    59e4:	eafffff1 	b	59b0 <ev3_infrared_sensor_get_distance+0x2c>
    59e8:	e1a00005 	mov	r0, r5
    59ec:	e3a01000 	mov	r1, #0
    59f0:	e28d2007 	add	r2, sp, #7
    59f4:	e3a03001 	mov	r3, #1
    59f8:	ebfffd1e 	bl	4e78 <uart_sensor_fetch_data>
    59fc:	e5dd0007 	ldrb	r0, [sp, #7]
    5a00:	eafffff2 	b	59d0 <ev3_infrared_sensor_get_distance+0x4c>
    5a04:	0001066c 	andeq	r0, r1, ip, ror #12
    5a08:	000001b4 			; <UNDEFINED> instruction: 0x000001b4
    5a0c:	000001dc 	ldrdeq	r0, [r0], -ip

00005a10 <ev3_infrared_sensor_seek>:
    5a10:	e92d4070 	push	{r4, r5, r6, lr}
    5a14:	e59f40d8 	ldr	r4, [pc, #216]	; 5af4 <ev3_infrared_sensor_seek+0xe4>
    5a18:	e3510003 	cmp	r1, #3
    5a1c:	e24dd010 	sub	sp, sp, #16
    5a20:	e1a06001 	mov	r6, r1
    5a24:	e1a05000 	mov	r5, r0
    5a28:	e08f4004 	add	r4, pc, r4
    5a2c:	8a00001c 	bhi	5aa4 <ev3_infrared_sensor_seek+0x94>
    5a30:	e1a00001 	mov	r0, r1
    5a34:	ebfffe78 	bl	541c <ev3_sensor_get_type>
    5a38:	e3500005 	cmp	r0, #5
    5a3c:	13e03028 	mvnne	r3, #40	; 0x28
    5a40:	0a000019 	beq	5aac <ev3_infrared_sensor_seek+0x9c>
    5a44:	e59f20ac 	ldr	r2, [pc, #172]	; 5af8 <ev3_infrared_sensor_seek+0xe8>
    5a48:	e59f10ac 	ldr	r1, [pc, #172]	; 5afc <ev3_infrared_sensor_seek+0xec>
    5a4c:	e7942002 	ldr	r2, [r4, r2]
    5a50:	e7941001 	ldr	r1, [r4, r1]
    5a54:	e2822f52 	add	r2, r2, #328	; 0x148
    5a58:	e3a00004 	mov	r0, #4
    5a5c:	ebffea31 	bl	328 <syslog>
    5a60:	e3a02000 	mov	r2, #0
    5a64:	e3e0307f 	mvn	r3, #127	; 0x7f
    5a68:	e1a0100d 	mov	r1, sp
    5a6c:	e5cd2000 	strb	r2, [sp]
    5a70:	e5cd2001 	strb	r2, [sp, #1]
    5a74:	e5cd2002 	strb	r2, [sp, #2]
    5a78:	e5cd2003 	strb	r2, [sp, #3]
    5a7c:	e5cd3004 	strb	r3, [sp, #4]
    5a80:	e5cd3005 	strb	r3, [sp, #5]
    5a84:	e5cd3006 	strb	r3, [sp, #6]
    5a88:	e5cd3007 	strb	r3, [sp, #7]
    5a8c:	e1a00005 	mov	r0, r5
    5a90:	e3a02008 	mov	r2, #8
    5a94:	eb000d8c 	bl	90cc <memcpy>
    5a98:	e1a00005 	mov	r0, r5
    5a9c:	e28dd010 	add	sp, sp, #16
    5aa0:	e8bd8070 	pop	{r4, r5, r6, pc}
    5aa4:	e3e03011 	mvn	r3, #17
    5aa8:	eaffffe5 	b	5a44 <ev3_infrared_sensor_seek+0x34>
    5aac:	e28d4008 	add	r4, sp, #8
    5ab0:	e1a00006 	mov	r0, r6
    5ab4:	e1a02004 	mov	r2, r4
    5ab8:	e3a01001 	mov	r1, #1
    5abc:	e3a03008 	mov	r3, #8
    5ac0:	ebfffcec 	bl	4e78 <uart_sensor_fetch_data>
    5ac4:	e1a0100d 	mov	r1, sp
    5ac8:	e1a0000d 	mov	r0, sp
    5acc:	e3a02000 	mov	r2, #0
    5ad0:	e1a03004 	mov	r3, r4
    5ad4:	e7f3c002 	ldrb	ip, [r3, r2]!
    5ad8:	e2822002 	add	r2, r2, #2
    5adc:	e5d33001 	ldrb	r3, [r3, #1]
    5ae0:	e3520008 	cmp	r2, #8
    5ae4:	e4c0c001 	strb	ip, [r0], #1
    5ae8:	e5c03003 	strb	r3, [r0, #3]
    5aec:	1afffff7 	bne	5ad0 <ev3_infrared_sensor_seek+0xc0>
    5af0:	eaffffe5 	b	5a8c <ev3_infrared_sensor_seek+0x7c>
    5af4:	000105dc 	ldrdeq	r0, [r1], -ip
    5af8:	000001b4 			; <UNDEFINED> instruction: 0x000001b4
    5afc:	000001dc 	ldrdeq	r0, [r0], -ip

00005b00 <ev3_infrared_sensor_get_remote>:
    5b00:	e92d4ff0 	push	{r4, r5, r6, r7, r8, r9, sl, fp, lr}
    5b04:	e59f4188 	ldr	r4, [pc, #392]	; 5c94 <ev3_infrared_sensor_get_remote+0x194>
    5b08:	e3500003 	cmp	r0, #3
    5b0c:	e24dd014 	sub	sp, sp, #20
    5b10:	e1a05000 	mov	r5, r0
    5b14:	e08f4004 	add	r4, pc, r4
    5b18:	8a00001b 	bhi	5b8c <ev3_infrared_sensor_get_remote+0x8c>
    5b1c:	ebfffe3e 	bl	541c <ev3_sensor_get_type>
    5b20:	e3500005 	cmp	r0, #5
    5b24:	e1a06000 	mov	r6, r0
    5b28:	13e03028 	mvnne	r3, #40	; 0x28
    5b2c:	0a000018 	beq	5b94 <ev3_infrared_sensor_get_remote+0x94>
    5b30:	e59f2160 	ldr	r2, [pc, #352]	; 5c98 <ev3_infrared_sensor_get_remote+0x198>
    5b34:	e59f1160 	ldr	r1, [pc, #352]	; 5c9c <ev3_infrared_sensor_get_remote+0x19c>
    5b38:	e7942002 	ldr	r2, [r4, r2]
    5b3c:	e7941001 	ldr	r1, [r4, r1]
    5b40:	e2822f59 	add	r2, r2, #356	; 0x164
    5b44:	e3a00004 	mov	r0, #4
    5b48:	ebffe9f6 	bl	328 <syslog>
    5b4c:	e3a03000 	mov	r3, #0
    5b50:	e5cd3004 	strb	r3, [sp, #4]
    5b54:	e5cd3005 	strb	r3, [sp, #5]
    5b58:	e5cd3006 	strb	r3, [sp, #6]
    5b5c:	e5cd3007 	strb	r3, [sp, #7]
    5b60:	e59d3004 	ldr	r3, [sp, #4]
    5b64:	e58d300c 	str	r3, [sp, #12]
    5b68:	e5dd200c 	ldrb	r2, [sp, #12]
    5b6c:	e5dd300d 	ldrb	r3, [sp, #13]
    5b70:	e5dd100e 	ldrb	r1, [sp, #14]
    5b74:	e5dd000f 	ldrb	r0, [sp, #15]
    5b78:	e1823403 	orr	r3, r2, r3, lsl #8
    5b7c:	e1833801 	orr	r3, r3, r1, lsl #16
    5b80:	e1830c00 	orr	r0, r3, r0, lsl #24
    5b84:	e28dd014 	add	sp, sp, #20
    5b88:	e8bd8ff0 	pop	{r4, r5, r6, r7, r8, r9, sl, fp, pc}
    5b8c:	e3e03011 	mvn	r3, #17
    5b90:	eaffffe6 	b	5b30 <ev3_infrared_sensor_get_remote+0x30>
    5b94:	e28d4008 	add	r4, sp, #8
    5b98:	e1a00005 	mov	r0, r5
    5b9c:	e1a02004 	mov	r2, r4
    5ba0:	e3a03004 	mov	r3, #4
    5ba4:	e3a01002 	mov	r1, #2
    5ba8:	ebfffcb2 	bl	4e78 <uart_sensor_fetch_data>
    5bac:	e3a0b00c 	mov	fp, #12
    5bb0:	e1a02004 	mov	r2, r4
    5bb4:	e1a00006 	mov	r0, r6
    5bb8:	e1a0c004 	mov	ip, r4
    5bbc:	e28d3004 	add	r3, sp, #4
    5bc0:	e3a0a003 	mov	sl, #3
    5bc4:	e3a09010 	mov	r9, #16
    5bc8:	e3a0800a 	mov	r8, #10
    5bcc:	e3a07006 	mov	r7, #6
    5bd0:	e3a06009 	mov	r6, #9
    5bd4:	e3a05008 	mov	r5, #8
    5bd8:	e3a04004 	mov	r4, #4
    5bdc:	e3a0e002 	mov	lr, #2
    5be0:	e4d21001 	ldrb	r1, [r2], #1
    5be4:	e351000b 	cmp	r1, #11
    5be8:	908ff101 	addls	pc, pc, r1, lsl #2
    5bec:	ea00000c 	b	5c24 <ev3_infrared_sensor_get_remote+0x124>
    5bf0:	ea000024 	b	5c88 <ev3_infrared_sensor_get_remote+0x188>
    5bf4:	ea000020 	b	5c7c <ev3_infrared_sensor_get_remote+0x17c>
    5bf8:	ea00001d 	b	5c74 <ev3_infrared_sensor_get_remote+0x174>
    5bfc:	ea00001a 	b	5c6c <ev3_infrared_sensor_get_remote+0x16c>
    5c00:	ea000017 	b	5c64 <ev3_infrared_sensor_get_remote+0x164>
    5c04:	ea000014 	b	5c5c <ev3_infrared_sensor_get_remote+0x15c>
    5c08:	ea000011 	b	5c54 <ev3_infrared_sensor_get_remote+0x154>
    5c0c:	ea00000e 	b	5c4c <ev3_infrared_sensor_get_remote+0x14c>
    5c10:	ea00000b 	b	5c44 <ev3_infrared_sensor_get_remote+0x144>
    5c14:	ea000008 	b	5c3c <ev3_infrared_sensor_get_remote+0x13c>
    5c18:	ea000005 	b	5c34 <ev3_infrared_sensor_get_remote+0x134>
    5c1c:	eaffffff 	b	5c20 <ev3_infrared_sensor_get_remote+0x120>
    5c20:	e5c3b000 	strb	fp, [r3]
    5c24:	e2833001 	add	r3, r3, #1
    5c28:	e153000c 	cmp	r3, ip
    5c2c:	1affffeb 	bne	5be0 <ev3_infrared_sensor_get_remote+0xe0>
    5c30:	eaffffca 	b	5b60 <ev3_infrared_sensor_get_remote+0x60>
    5c34:	e5c3a000 	strb	sl, [r3]
    5c38:	eafffff9 	b	5c24 <ev3_infrared_sensor_get_remote+0x124>
    5c3c:	e5c39000 	strb	r9, [r3]
    5c40:	eafffff7 	b	5c24 <ev3_infrared_sensor_get_remote+0x124>
    5c44:	e5c38000 	strb	r8, [r3]
    5c48:	eafffff5 	b	5c24 <ev3_infrared_sensor_get_remote+0x124>
    5c4c:	e5c37000 	strb	r7, [r3]
    5c50:	eafffff3 	b	5c24 <ev3_infrared_sensor_get_remote+0x124>
    5c54:	e5c36000 	strb	r6, [r3]
    5c58:	eafffff1 	b	5c24 <ev3_infrared_sensor_get_remote+0x124>
    5c5c:	e5c30000 	strb	r0, [r3]
    5c60:	eaffffef 	b	5c24 <ev3_infrared_sensor_get_remote+0x124>
    5c64:	e5c35000 	strb	r5, [r3]
    5c68:	eaffffed 	b	5c24 <ev3_infrared_sensor_get_remote+0x124>
    5c6c:	e5c34000 	strb	r4, [r3]
    5c70:	eaffffeb 	b	5c24 <ev3_infrared_sensor_get_remote+0x124>
    5c74:	e5c3e000 	strb	lr, [r3]
    5c78:	eaffffe9 	b	5c24 <ev3_infrared_sensor_get_remote+0x124>
    5c7c:	e3a01001 	mov	r1, #1
    5c80:	e5c31000 	strb	r1, [r3]
    5c84:	eaffffe6 	b	5c24 <ev3_infrared_sensor_get_remote+0x124>
    5c88:	e3a01000 	mov	r1, #0
    5c8c:	e5c31000 	strb	r1, [r3]
    5c90:	eaffffe3 	b	5c24 <ev3_infrared_sensor_get_remote+0x124>
    5c94:	000104f0 	strdeq	r0, [r1], -r0	; <UNPREDICTABLE>
    5c98:	000001b4 			; <UNDEFINED> instruction: 0x000001b4
    5c9c:	000001dc 	ldrdeq	r0, [r0], -ip

00005ca0 <ev3_touch_sensor_is_pressed>:
    5ca0:	e92d4038 	push	{r3, r4, r5, lr}
    5ca4:	e59f4084 	ldr	r4, [pc, #132]	; 5d30 <ev3_touch_sensor_is_pressed+0x90>
    5ca8:	e3500003 	cmp	r0, #3
    5cac:	e1a05000 	mov	r5, r0
    5cb0:	e08f4004 	add	r4, pc, r4
    5cb4:	8a00000c 	bhi	5cec <ev3_touch_sensor_is_pressed+0x4c>
    5cb8:	ebfffdd7 	bl	541c <ev3_sensor_get_type>
    5cbc:	e3500003 	cmp	r0, #3
    5cc0:	13e03028 	mvnne	r3, #40	; 0x28
    5cc4:	0a00000a 	beq	5cf4 <ev3_touch_sensor_is_pressed+0x54>
    5cc8:	e59f2064 	ldr	r2, [pc, #100]	; 5d34 <ev3_touch_sensor_is_pressed+0x94>
    5ccc:	e59f1064 	ldr	r1, [pc, #100]	; 5d38 <ev3_touch_sensor_is_pressed+0x98>
    5cd0:	e7942002 	ldr	r2, [r4, r2]
    5cd4:	e7941001 	ldr	r1, [r4, r1]
    5cd8:	e2822f61 	add	r2, r2, #388	; 0x184
    5cdc:	e3a00004 	mov	r0, #4
    5ce0:	ebffe990 	bl	328 <syslog>
    5ce4:	e3a00000 	mov	r0, #0
    5ce8:	e8bd8038 	pop	{r3, r4, r5, pc}
    5cec:	e3e03011 	mvn	r3, #17
    5cf0:	eafffff4 	b	5cc8 <ev3_touch_sensor_is_pressed+0x28>
    5cf4:	e59f3040 	ldr	r3, [pc, #64]	; 5d3c <ev3_touch_sensor_is_pressed+0x9c>
    5cf8:	e0855085 	add	r5, r5, r5, lsl #1
    5cfc:	e7943003 	ldr	r3, [r4, r3]
    5d00:	e59f2038 	ldr	r2, [pc, #56]	; 5d40 <ev3_touch_sensor_is_pressed+0xa0>
    5d04:	e5933008 	ldr	r3, [r3, #8]
    5d08:	e0835105 	add	r5, r3, r5, lsl #2
    5d0c:	e995000a 	ldmib	r5, {r1, r3}
    5d10:	e1d330b0 	ldrh	r3, [r3]
    5d14:	e1a03083 	lsl	r3, r3, #1
    5d18:	e19130b3 	ldrh	r3, [r1, r3]
    5d1c:	e1a03803 	lsl	r3, r3, #16
    5d20:	e1520843 	cmp	r2, r3, asr #16
    5d24:	b3a00001 	movlt	r0, #1
    5d28:	a3a00000 	movge	r0, #0
    5d2c:	e8bd8038 	pop	{r3, r4, r5, pc}
    5d30:	00010354 	andeq	r0, r1, r4, asr r3
    5d34:	000001b4 			; <UNDEFINED> instruction: 0x000001b4
    5d38:	000001dc 	ldrdeq	r0, [r0], -ip
    5d3c:	000001e4 	andeq	r0, r0, r4, ror #3
    5d40:	000007ff 	strdeq	r0, [r0], -pc	; <UNPREDICTABLE>

00005d44 <ht_nxt_accel_sensor_measure>:
    5d44:	e92d41f0 	push	{r4, r5, r6, r7, r8, lr}
    5d48:	e59f51bc 	ldr	r5, [pc, #444]	; 5f0c <ht_nxt_accel_sensor_measure+0x1c8>
    5d4c:	e3500003 	cmp	r0, #3
    5d50:	e24dd020 	sub	sp, sp, #32
    5d54:	e1a04000 	mov	r4, r0
    5d58:	e08f5005 	add	r5, pc, r5
    5d5c:	8a000005 	bhi	5d78 <ht_nxt_accel_sensor_measure+0x34>
    5d60:	e1a06001 	mov	r6, r1
    5d64:	ebfffdac 	bl	541c <ev3_sensor_get_type>
    5d68:	e3500006 	cmp	r0, #6
    5d6c:	0a00000c 	beq	5da4 <ht_nxt_accel_sensor_measure+0x60>
    5d70:	e3e03028 	mvn	r3, #40	; 0x28
    5d74:	ea000000 	b	5d7c <ht_nxt_accel_sensor_measure+0x38>
    5d78:	e3e03011 	mvn	r3, #17
    5d7c:	e59f218c 	ldr	r2, [pc, #396]	; 5f10 <ht_nxt_accel_sensor_measure+0x1cc>
    5d80:	e59f118c 	ldr	r1, [pc, #396]	; 5f14 <ht_nxt_accel_sensor_measure+0x1d0>
    5d84:	e7952002 	ldr	r2, [r5, r2]
    5d88:	e3a00004 	mov	r0, #4
    5d8c:	e7951001 	ldr	r1, [r5, r1]
    5d90:	e2822e1a 	add	r2, r2, #416	; 0x1a0
    5d94:	ebffe963 	bl	328 <syslog>
    5d98:	e3a00000 	mov	r0, #0
    5d9c:	e28dd020 	add	sp, sp, #32
    5da0:	e8bd81f0 	pop	{r4, r5, r6, r7, r8, pc}
    5da4:	e59f316c 	ldr	r3, [pc, #364]	; 5f18 <ht_nxt_accel_sensor_measure+0x1d4>
    5da8:	e7953003 	ldr	r3, [r5, r3]
    5dac:	e593100c 	ldr	r1, [r3, #12]
    5db0:	e0811184 	add	r1, r1, r4, lsl #3
    5db4:	e5913004 	ldr	r3, [r1, #4]
    5db8:	e5d32000 	ldrb	r2, [r3]
    5dbc:	e21220ff 	ands	r2, r2, #255	; 0xff
    5dc0:	1affffea 	bne	5d70 <ht_nxt_accel_sensor_measure+0x2c>
    5dc4:	e2466002 	sub	r6, r6, #2
    5dc8:	e5913000 	ldr	r3, [r1]
    5dcc:	e7d30002 	ldrb	r0, [r3, r2]
    5dd0:	e20000ff 	and	r0, r0, #255	; 0xff
    5dd4:	e1e600b2 	strh	r0, [r6, #2]!
    5dd8:	e2403c01 	sub	r3, r0, #256	; 0x100
    5ddc:	e591c000 	ldr	ip, [r1]
    5de0:	e350007f 	cmp	r0, #127	; 0x7f
    5de4:	e1a03903 	lsl	r3, r3, #18
    5de8:	e1a03823 	lsr	r3, r3, #16
    5dec:	d1a03100 	lslle	r3, r0, #2
    5df0:	e2820003 	add	r0, r2, #3
    5df4:	e7dc0000 	ldrb	r0, [ip, r0]
    5df8:	e2822001 	add	r2, r2, #1
    5dfc:	e2000003 	and	r0, r0, #3
    5e00:	e1803003 	orr	r3, r0, r3
    5e04:	e3520003 	cmp	r2, #3
    5e08:	e1c630b0 	strh	r3, [r6]
    5e0c:	1affffed 	bne	5dc8 <ht_nxt_accel_sensor_measure+0x84>
    5e10:	e59f3104 	ldr	r3, [pc, #260]	; 5f1c <ht_nxt_accel_sensor_measure+0x1d8>
    5e14:	e3a01001 	mov	r1, #1
    5e18:	e7952003 	ldr	r2, [r5, r3]
    5e1c:	e1a00004 	mov	r0, r4
    5e20:	e1a03001 	mov	r3, r1
    5e24:	e3a04006 	mov	r4, #6
    5e28:	e3a0c029 	mov	ip, #41	; 0x29
    5e2c:	e1a0700c 	mov	r7, ip
    5e30:	ef000001 	svc	0x00000001
    5e34:	e3700021 	cmn	r0, #33	; 0x21
    5e38:	0a00001b 	beq	5eac <ht_nxt_accel_sensor_measure+0x168>
    5e3c:	e3500000 	cmp	r0, #0
    5e40:	01a00001 	moveq	r0, r1
    5e44:	0affffd4 	beq	5d9c <ht_nxt_accel_sensor_measure+0x58>
    5e48:	e1a0c00d 	mov	ip, sp
    5e4c:	e59f30cc 	ldr	r3, [pc, #204]	; 5f20 <ht_nxt_accel_sensor_measure+0x1dc>
    5e50:	e3a06002 	mov	r6, #2
    5e54:	e58d6000 	str	r6, [sp]
    5e58:	e59f20c4 	ldr	r2, [pc, #196]	; 5f24 <ht_nxt_accel_sensor_measure+0x1e0>
    5e5c:	e7951003 	ldr	r1, [r5, r3]
    5e60:	e59f30c0 	ldr	r3, [pc, #192]	; 5f28 <ht_nxt_accel_sensor_measure+0x1e4>
    5e64:	e58d1008 	str	r1, [sp, #8]
    5e68:	e58d200c 	str	r2, [sp, #12]
    5e6c:	e7953003 	ldr	r3, [r5, r3]
    5e70:	e3a00000 	mov	r0, #0
    5e74:	e1a0100c 	mov	r1, ip
    5e78:	e58d3010 	str	r3, [sp, #16]
    5e7c:	e1a02000 	mov	r2, r0
    5e80:	e1a03000 	mov	r3, r0
    5e84:	e1a04000 	mov	r4, r0
    5e88:	e3a0c001 	mov	ip, #1
    5e8c:	e1a0700c 	mov	r7, ip
    5e90:	ef000001 	svc	0x00000001
    5e94:	e1500002 	cmp	r0, r2
    5e98:	aa000001 	bge	5ea4 <ht_nxt_accel_sensor_measure+0x160>
    5e9c:	e1a07006 	mov	r7, r6
    5ea0:	ef000001 	svc	0x00000001
    5ea4:	e3a00001 	mov	r0, #1
    5ea8:	eaffffbb 	b	5d9c <ht_nxt_accel_sensor_measure+0x58>
    5eac:	e59f2078 	ldr	r2, [pc, #120]	; 5f2c <ht_nxt_accel_sensor_measure+0x1e8>
    5eb0:	e3a06002 	mov	r6, #2
    5eb4:	e58d6000 	str	r6, [sp]
    5eb8:	e59f3070 	ldr	r3, [pc, #112]	; 5f30 <ht_nxt_accel_sensor_measure+0x1ec>
    5ebc:	e7951002 	ldr	r1, [r5, r2]
    5ec0:	e3a020e2 	mov	r2, #226	; 0xe2
    5ec4:	e58d1008 	str	r1, [sp, #8]
    5ec8:	e58d200c 	str	r2, [sp, #12]
    5ecc:	e7953003 	ldr	r3, [r5, r3]
    5ed0:	e3a00000 	mov	r0, #0
    5ed4:	e58d3010 	str	r3, [sp, #16]
    5ed8:	e1a0c00d 	mov	ip, sp
    5edc:	e1a0100d 	mov	r1, sp
    5ee0:	e1a02000 	mov	r2, r0
    5ee4:	e1a03000 	mov	r3, r0
    5ee8:	e1a04000 	mov	r4, r0
    5eec:	e3a08001 	mov	r8, #1
    5ef0:	e1a07008 	mov	r7, r8
    5ef4:	ef000001 	svc	0x00000001
    5ef8:	e1500002 	cmp	r0, r2
    5efc:	aaffffd2 	bge	5e4c <ht_nxt_accel_sensor_measure+0x108>
    5f00:	e1a07006 	mov	r7, r6
